	.section	__TEXT,__text,regular,pure_instructions
	.build_version macos, 15, 0	sdk_version 15, 5
	.file	0 "/Users/danielfox/code/programming-parallel-computers/cp1" "cp.cc" md5 0x7b8910b8884abc4c5c5773839bd97809
	.file	1 "/Library/Developer/CommandLineTools/SDKs/MacOSX.sdk/usr/include/c++/v1" "vector"
	.file	2 "/Library/Developer/CommandLineTools/SDKs/MacOSX.sdk/usr/include/c++/v1" "limits"
	.file	3 "/Library/Developer/CommandLineTools/SDKs/MacOSX.sdk/usr/include/c++/v1/__memory" "allocator.h"
	.file	4 "/Library/Developer/CommandLineTools/usr/lib/clang/17/include" "__stddef_size_t.h" md5 0x2c44e821a2b1951cde2eb0fb2e656867
	.file	5 "/Library/Developer/CommandLineTools/SDKs/MacOSX.sdk/usr/include/c++/v1/__memory" "allocator_traits.h"
	.file	6 "/Library/Developer/CommandLineTools/SDKs/MacOSX.sdk/usr/include/c++/v1/__memory" "compressed_pair.h"
	.file	7 "/Library/Developer/CommandLineTools/SDKs/MacOSX.sdk/usr/include/c++/v1/__type_traits" "type_identity.h"
	.file	8 "/Library/Developer/CommandLineTools/SDKs/MacOSX.sdk/usr/include/c++/v1" "initializer_list"
	.file	9 "/Library/Developer/CommandLineTools/SDKs/MacOSX.sdk/usr/include/c++/v1/__type_traits" "integral_constant.h"
	.file	10 "/Library/Developer/CommandLineTools/SDKs/MacOSX.sdk/usr/include/c++/v1/__utility" "exception_guard.h"
	.file	11 "/Library/Developer/CommandLineTools/SDKs/MacOSX.sdk/usr/include/c++/v1/__exception" "exception.h"
	.file	12 "/Library/Developer/CommandLineTools/SDKs/MacOSX.sdk/usr/include/c++/v1" "stdexcept"
	.file	13 "/Library/Developer/CommandLineTools/SDKs/MacOSX.sdk/usr/include/c++/v1/__string" "char_traits.h"
	.file	14 "/Library/Developer/CommandLineTools/SDKs/MacOSX.sdk/usr/include/c++/v1" "string"
	.file	15 "/Library/Developer/CommandLineTools/SDKs/MacOSX.sdk/usr/include/c++/v1" "string_view"
	.file	16 "/Library/Developer/CommandLineTools/SDKs/MacOSX.sdk/usr/include/c++/v1/__fwd" "string_view.h"
	.file	17 "/Library/Developer/CommandLineTools/SDKs/MacOSX.sdk/usr/include/c++/v1/__fwd" "string.h"
	.globl	__Z14normalize_rowsiiPKfRNSt3__16vectorIdNS1_9allocatorIdEEEE ; -- Begin function _Z14normalize_rowsiiPKfRNSt3__16vectorIdNS1_9allocatorIdEEEE
	.p2align	2
__Z14normalize_rowsiiPKfRNSt3__16vectorIdNS1_9allocatorIdEEEE: ; @_Z14normalize_rowsiiPKfRNSt3__16vectorIdNS1_9allocatorIdEEEE
Lfunc_begin0:
	.cfi_startproc
; %bb.0:
	;DEBUG_VALUE: normalize_rows:a <- $w0
	;DEBUG_VALUE: normalize_rows:nx <- $w1
	;DEBUG_VALUE: normalize_rows:data <- $x2
	;DEBUG_VALUE: normalize_rows:normalized <- $x3
	;DEBUG_VALUE: normalize_rows:mean <- 0.000000e+00
	;DEBUG_VALUE: normalize_rows:len <- 0.000000e+00
	.loc	0 8 5 prologue_end              ; cp.cc:8:5
	; InlineAsm Start
	; begin mean
	; InlineAsm End
Ltmp8:
	;DEBUG_VALUE: k <- 0
	.loc	0 9 5                           ; cp.cc:9:5
	cmp	w1, #0
	b.le	LBB0_3
Ltmp9:
; %bb.1:
	;DEBUG_VALUE: k <- 0
	;DEBUG_VALUE: normalize_rows:len <- 0.000000e+00
	;DEBUG_VALUE: normalize_rows:mean <- 0.000000e+00
	;DEBUG_VALUE: normalize_rows:normalized <- $x3
	;DEBUG_VALUE: normalize_rows:data <- $x2
	;DEBUG_VALUE: normalize_rows:nx <- $w1
	;DEBUG_VALUE: normalize_rows:a <- $w0
	.loc	0 0 5 is_stmt 0                 ; cp.cc:0:5
	mul	w8, w1, w0
	.loc	0 9 5                           ; cp.cc:9:5
	sxtw	x9, w8
Ltmp10:
	.loc	0 9 20                          ; cp.cc:9:20
	mov	w8, w1
	add	x10, x2, x9, lsl #2
Ltmp11:
	.loc	0 9 5                           ; cp.cc:9:5
	cmp	w1, #15
	b.hi	LBB0_4
Ltmp12:
; %bb.2:
	;DEBUG_VALUE: k <- 0
	;DEBUG_VALUE: normalize_rows:len <- 0.000000e+00
	;DEBUG_VALUE: normalize_rows:mean <- 0.000000e+00
	;DEBUG_VALUE: normalize_rows:normalized <- $x3
	;DEBUG_VALUE: normalize_rows:data <- $x2
	;DEBUG_VALUE: normalize_rows:nx <- $w1
	;DEBUG_VALUE: normalize_rows:a <- $w0
	.loc	0 0 5                           ; cp.cc:0:5
	mov	x11, #0                         ; =0x0
	movi	d0, #0000000000000000
	b	LBB0_7
Ltmp13:
LBB0_3:
	;DEBUG_VALUE: normalize_rows:len <- 0.000000e+00
	;DEBUG_VALUE: normalize_rows:mean <- 0.000000e+00
	;DEBUG_VALUE: normalize_rows:normalized <- $x3
	;DEBUG_VALUE: normalize_rows:data <- $x2
	;DEBUG_VALUE: normalize_rows:nx <- $w1
	;DEBUG_VALUE: normalize_rows:a <- $w0
	;DEBUG_VALUE: normalize_rows:mean <- undef
	.loc	0 13 5 is_stmt 1                ; cp.cc:13:5
	; InlineAsm Start
	; end mean
	; InlineAsm End
	;DEBUG_VALUE: k <- 0
	.loc	0 26 1                          ; cp.cc:26:1
	ret
Ltmp14:
LBB0_4:
	;DEBUG_VALUE: k <- 0
	;DEBUG_VALUE: normalize_rows:len <- 0.000000e+00
	;DEBUG_VALUE: normalize_rows:mean <- 0.000000e+00
	;DEBUG_VALUE: normalize_rows:normalized <- $x3
	;DEBUG_VALUE: normalize_rows:data <- $x2
	;DEBUG_VALUE: normalize_rows:nx <- $w1
	;DEBUG_VALUE: normalize_rows:a <- $w0
	.loc	0 9 5                           ; cp.cc:9:5
	and	x11, x8, #0x7ffffff0
	add	x12, x10, #32
	movi	d0, #0000000000000000
	mov	x13, x11
Ltmp15:
LBB0_5:                                 ; =>This Inner Loop Header: Depth=1
	;DEBUG_VALUE: k <- 0
	;DEBUG_VALUE: normalize_rows:len <- 0.000000e+00
	;DEBUG_VALUE: normalize_rows:mean <- 0.000000e+00
	;DEBUG_VALUE: normalize_rows:normalized <- $x3
	;DEBUG_VALUE: normalize_rows:data <- $x2
	;DEBUG_VALUE: normalize_rows:nx <- $w1
	;DEBUG_VALUE: normalize_rows:a <- $w0
	.loc	0 10 17                         ; cp.cc:10:17
	ldp	q1, q2, [x12, #-32]
	ldp	q3, q4, [x12], #64
	fcvtl2	v5.2d, v1.4s
	mov	d6, v5[1]
	fcvtl	v1.2d, v1.2s
	mov	d7, v1[1]
	fcvtl2	v16.2d, v2.4s
	mov	d17, v16[1]
	fcvtl	v2.2d, v2.2s
	mov	d18, v2[1]
	fcvtl2	v19.2d, v3.4s
	mov	d20, v19[1]
	fcvtl	v3.2d, v3.2s
	mov	d21, v3[1]
	fcvtl2	v22.2d, v4.4s
	mov	d23, v22[1]
	fcvtl	v4.2d, v4.2s
	mov	d24, v4[1]
	fadd	d0, d0, d1
	fadd	d0, d0, d7
	fadd	d0, d0, d5
	fadd	d0, d0, d6
	fadd	d0, d0, d2
	fadd	d0, d0, d18
	fadd	d0, d0, d16
	fadd	d0, d0, d17
	fadd	d0, d0, d3
	fadd	d0, d0, d21
	fadd	d0, d0, d19
	fadd	d0, d0, d20
	fadd	d0, d0, d4
	fadd	d0, d0, d24
	fadd	d0, d0, d22
	fadd	d0, d0, d23
Ltmp16:
	.loc	0 9 26                          ; cp.cc:9:26
	subs	x13, x13, #16
	b.ne	LBB0_5
Ltmp17:
; %bb.6:
	;DEBUG_VALUE: k <- 0
	;DEBUG_VALUE: normalize_rows:len <- 0.000000e+00
	;DEBUG_VALUE: normalize_rows:mean <- 0.000000e+00
	;DEBUG_VALUE: normalize_rows:normalized <- $x3
	;DEBUG_VALUE: normalize_rows:data <- $x2
	;DEBUG_VALUE: normalize_rows:nx <- $w1
	;DEBUG_VALUE: normalize_rows:a <- $w0
	.loc	0 9 5 is_stmt 0                 ; cp.cc:9:5
	cmp	x11, x8
	b.eq	LBB0_9
Ltmp18:
LBB0_7:
	;DEBUG_VALUE: k <- 0
	;DEBUG_VALUE: normalize_rows:len <- 0.000000e+00
	;DEBUG_VALUE: normalize_rows:mean <- 0.000000e+00
	;DEBUG_VALUE: normalize_rows:normalized <- $x3
	;DEBUG_VALUE: normalize_rows:data <- $x2
	;DEBUG_VALUE: normalize_rows:nx <- $w1
	;DEBUG_VALUE: normalize_rows:a <- $w0
	lsl	x12, x11, #2
	add	x12, x12, x9, lsl #2
	add	x12, x2, x12
	sub	x11, x8, x11
Ltmp19:
LBB0_8:                                 ; =>This Inner Loop Header: Depth=1
	;DEBUG_VALUE: normalize_rows:len <- 0.000000e+00
	;DEBUG_VALUE: normalize_rows:normalized <- $x3
	;DEBUG_VALUE: normalize_rows:data <- $x2
	;DEBUG_VALUE: normalize_rows:nx <- $w1
	;DEBUG_VALUE: normalize_rows:a <- $w0
	;DEBUG_VALUE: normalize_rows:mean <- $d0
	;DEBUG_VALUE: k <- [DW_OP_LLVM_arg 0, DW_OP_consts 4, DW_OP_LLVM_arg 0, DW_OP_LLVM_arg 0, DW_OP_mul, DW_OP_LLVM_convert 64 5, DW_OP_mul, DW_OP_consts 4, DW_OP_LLVM_arg 0, DW_OP_mul, DW_OP_plus, DW_OP_LLVM_arg 0, DW_OP_plus, DW_OP_minus, DW_OP_consts 4, DW_OP_div, DW_OP_LLVM_arg 0, DW_OP_plus, DW_OP_stack_value] undef
	.loc	0 10 17 is_stmt 1               ; cp.cc:10:17
	ldr	s1, [x12], #4
	fcvt	d1, s1
	.loc	0 10 14 is_stmt 0               ; cp.cc:10:14
	fadd	d0, d0, d1
Ltmp20:
	;DEBUG_VALUE: k <- [DW_OP_LLVM_arg 0, DW_OP_consts 4, DW_OP_LLVM_arg 0, DW_OP_LLVM_arg 0, DW_OP_mul, DW_OP_LLVM_convert 64 5, DW_OP_mul, DW_OP_consts 4, DW_OP_LLVM_arg 0, DW_OP_mul, DW_OP_plus, DW_OP_LLVM_arg 0, DW_OP_plus, DW_OP_minus, DW_OP_consts 4, DW_OP_div, DW_OP_consts 1, DW_OP_LLVM_arg 0, DW_OP_plus, DW_OP_plus, DW_OP_stack_value] undef
	;DEBUG_VALUE: normalize_rows:mean <- $d0
	.loc	0 9 20 is_stmt 1                ; cp.cc:9:20
	subs	x11, x11, #1
Ltmp21:
	.loc	0 9 5 is_stmt 0                 ; cp.cc:9:5
	b.ne	LBB0_8
Ltmp22:
LBB0_9:
	;DEBUG_VALUE: normalize_rows:len <- 0.000000e+00
	;DEBUG_VALUE: normalize_rows:normalized <- $x3
	;DEBUG_VALUE: normalize_rows:data <- $x2
	;DEBUG_VALUE: normalize_rows:nx <- $w1
	;DEBUG_VALUE: normalize_rows:a <- $w0
	.loc	0 12 19 is_stmt 1               ; cp.cc:12:19
	scvtf	d1, w1
	.loc	0 12 17 is_stmt 0               ; cp.cc:12:17
	fdiv	d0, d0, d1
Ltmp23:
	;DEBUG_VALUE: normalize_rows:mean <- $d0
	.loc	0 13 5 is_stmt 1                ; cp.cc:13:5
	; InlineAsm Start
	; end mean
	; InlineAsm End
Ltmp24:
	;DEBUG_VALUE: k <- 0
	.loc	0 0 5 is_stmt 0                 ; cp.cc:0:5
	ldr	x11, [x3]
Ltmp25:
	.loc	0 14 5 is_stmt 1                ; cp.cc:14:5
	cmp	w1, #15
	b.hi	LBB0_11
Ltmp26:
; %bb.10:
	;DEBUG_VALUE: normalize_rows:mean <- $d0
	;DEBUG_VALUE: k <- 0
	;DEBUG_VALUE: normalize_rows:len <- 0.000000e+00
	;DEBUG_VALUE: normalize_rows:normalized <- $x3
	;DEBUG_VALUE: normalize_rows:data <- $x2
	;DEBUG_VALUE: normalize_rows:nx <- $w1
	;DEBUG_VALUE: normalize_rows:a <- $w0
	.loc	0 0 5 is_stmt 0                 ; cp.cc:0:5
	mov	x12, #0                         ; =0x0
	b	LBB0_14
Ltmp27:
LBB0_11:
	;DEBUG_VALUE: normalize_rows:mean <- $d0
	;DEBUG_VALUE: k <- 0
	;DEBUG_VALUE: normalize_rows:len <- 0.000000e+00
	;DEBUG_VALUE: normalize_rows:normalized <- $x3
	;DEBUG_VALUE: normalize_rows:data <- $x2
	;DEBUG_VALUE: normalize_rows:nx <- $w1
	;DEBUG_VALUE: normalize_rows:a <- $w0
	.loc	0 14 5                          ; cp.cc:14:5
	and	x12, x8, #0x7ffffff0
	dup.2d	v1, v0[0]
	add	x10, x10, #32
	add	x13, x11, x9, lsl #3
	add	x13, x13, #64
	mov	x14, x12
Ltmp28:
LBB0_12:                                ; =>This Inner Loop Header: Depth=1
	;DEBUG_VALUE: normalize_rows:mean <- $d0
	;DEBUG_VALUE: k <- 0
	;DEBUG_VALUE: normalize_rows:len <- 0.000000e+00
	;DEBUG_VALUE: normalize_rows:normalized <- $x3
	;DEBUG_VALUE: normalize_rows:data <- $x2
	;DEBUG_VALUE: normalize_rows:nx <- $w1
	;DEBUG_VALUE: normalize_rows:a <- $w0
	.loc	0 15 31 is_stmt 1               ; cp.cc:15:31
	ldp	q2, q3, [x10, #-32]
	ldp	q4, q5, [x10], #64
	fcvtl2	v6.2d, v2.4s
	fcvtl	v2.2d, v2.2s
	fcvtl2	v7.2d, v3.4s
	fcvtl	v3.2d, v3.2s
	fcvtl2	v16.2d, v4.4s
	fcvtl	v4.2d, v4.2s
	fcvtl2	v17.2d, v5.4s
	fcvtl	v5.2d, v5.2s
	.loc	0 15 46 is_stmt 0               ; cp.cc:15:46
	fsub.2d	v2, v2, v1
	fsub.2d	v6, v6, v1
	fsub.2d	v3, v3, v1
	fsub.2d	v7, v7, v1
	fsub.2d	v4, v4, v1
	fsub.2d	v16, v16, v1
	fsub.2d	v5, v5, v1
	.loc	0 15 29                         ; cp.cc:15:29
	stp	q2, q6, [x13, #-64]
	stp	q3, q7, [x13, #-32]
	stp	q4, q16, [x13]
	.loc	0 15 46                         ; cp.cc:15:46
	fsub.2d	v2, v17, v1
	.loc	0 15 29                         ; cp.cc:15:29
	stp	q5, q2, [x13, #32]
Ltmp29:
	.loc	0 14 26 is_stmt 1               ; cp.cc:14:26
	add	x13, x13, #128
	subs	x14, x14, #16
	b.ne	LBB0_12
Ltmp30:
; %bb.13:
	;DEBUG_VALUE: normalize_rows:mean <- $d0
	;DEBUG_VALUE: k <- 0
	;DEBUG_VALUE: normalize_rows:len <- 0.000000e+00
	;DEBUG_VALUE: normalize_rows:normalized <- $x3
	;DEBUG_VALUE: normalize_rows:data <- $x2
	;DEBUG_VALUE: normalize_rows:nx <- $w1
	;DEBUG_VALUE: normalize_rows:a <- $w0
	.loc	0 14 5 is_stmt 0                ; cp.cc:14:5
	cmp	x12, x8
	b.eq	LBB0_16
Ltmp31:
LBB0_14:
	;DEBUG_VALUE: normalize_rows:mean <- $d0
	;DEBUG_VALUE: k <- 0
	;DEBUG_VALUE: normalize_rows:len <- 0.000000e+00
	;DEBUG_VALUE: normalize_rows:normalized <- $x3
	;DEBUG_VALUE: normalize_rows:data <- $x2
	;DEBUG_VALUE: normalize_rows:nx <- $w1
	;DEBUG_VALUE: normalize_rows:a <- $w0
	add	x13, x12, x9
	add	x10, x2, x13, lsl #2
	add	x11, x11, x13, lsl #3
	sub	x12, x8, x12
Ltmp32:
LBB0_15:                                ; =>This Inner Loop Header: Depth=1
	;DEBUG_VALUE: normalize_rows:mean <- $d0
	;DEBUG_VALUE: normalize_rows:len <- 0.000000e+00
	;DEBUG_VALUE: normalize_rows:normalized <- $x3
	;DEBUG_VALUE: normalize_rows:data <- $x2
	;DEBUG_VALUE: normalize_rows:nx <- $w1
	;DEBUG_VALUE: normalize_rows:a <- $w0
	;DEBUG_VALUE: k <- [DW_OP_LLVM_arg 0, DW_OP_consts 4, DW_OP_LLVM_arg 0, DW_OP_LLVM_arg 0, DW_OP_mul, DW_OP_LLVM_convert 64 5, DW_OP_LLVM_arg 0, DW_OP_plus, DW_OP_mul, DW_OP_LLVM_arg 0, DW_OP_plus, DW_OP_minus, DW_OP_consts 4, DW_OP_div, DW_OP_LLVM_arg 0, DW_OP_plus, DW_OP_stack_value] undef
	.loc	0 15 31 is_stmt 1               ; cp.cc:15:31
	ldr	s1, [x10], #4
	fcvt	d1, s1
	.loc	0 15 46 is_stmt 0               ; cp.cc:15:46
	fsub	d1, d1, d0
Ltmp33:
	;DEBUG_VALUE: operator[]:__n <- [DW_OP_LLVM_arg 0, DW_OP_consts 4, DW_OP_LLVM_arg 0, DW_OP_LLVM_arg 0, DW_OP_mul, DW_OP_LLVM_convert 64 5, DW_OP_LLVM_arg 0, DW_OP_plus, DW_OP_mul, DW_OP_LLVM_arg 0, DW_OP_plus, DW_OP_minus, DW_OP_consts 4, DW_OP_div, DW_OP_LLVM_arg 0, DW_OP_LLVM_arg 0, DW_OP_mul, DW_OP_LLVM_convert 64 5, DW_OP_LLVM_arg 0, DW_OP_plus, DW_OP_plus, DW_OP_stack_value] undef
	;DEBUG_VALUE: operator[]:this <- $x3
	.loc	0 15 29                         ; cp.cc:15:29
	str	d1, [x11], #8
Ltmp34:
	;DEBUG_VALUE: k <- [DW_OP_LLVM_arg 0, DW_OP_consts 4, DW_OP_LLVM_arg 0, DW_OP_LLVM_arg 0, DW_OP_mul, DW_OP_LLVM_convert 64 5, DW_OP_LLVM_arg 0, DW_OP_plus, DW_OP_mul, DW_OP_LLVM_arg 0, DW_OP_plus, DW_OP_minus, DW_OP_consts 4, DW_OP_div, DW_OP_consts 1, DW_OP_LLVM_arg 0, DW_OP_plus, DW_OP_plus, DW_OP_stack_value] undef
	.loc	0 14 20 is_stmt 1               ; cp.cc:14:20
	subs	x12, x12, #1
Ltmp35:
	.loc	0 14 5 is_stmt 0                ; cp.cc:14:5
	b.ne	LBB0_15
Ltmp36:
LBB0_16:
	;DEBUG_VALUE: normalize_rows:mean <- $d0
	;DEBUG_VALUE: normalize_rows:len <- 0.000000e+00
	;DEBUG_VALUE: normalize_rows:normalized <- $x3
	;DEBUG_VALUE: normalize_rows:data <- $x2
	;DEBUG_VALUE: normalize_rows:nx <- $w1
	;DEBUG_VALUE: normalize_rows:a <- $w0
	;DEBUG_VALUE: normalize_rows:len <- 0.000000e+00
	;DEBUG_VALUE: k <- 0
	.loc	0 0 5                           ; cp.cc:0:5
	ldr	x10, [x3]
Ltmp37:
	.loc	0 17 5 is_stmt 1                ; cp.cc:17:5
	cmp	w1, #3
	b.hi	LBB0_18
Ltmp38:
; %bb.17:
	;DEBUG_VALUE: k <- 0
	;DEBUG_VALUE: normalize_rows:mean <- $d0
	;DEBUG_VALUE: normalize_rows:len <- 0.000000e+00
	;DEBUG_VALUE: normalize_rows:normalized <- $x3
	;DEBUG_VALUE: normalize_rows:data <- $x2
	;DEBUG_VALUE: normalize_rows:nx <- $w1
	;DEBUG_VALUE: normalize_rows:a <- $w0
	.loc	0 0 5 is_stmt 0                 ; cp.cc:0:5
	mov	x11, #0                         ; =0x0
	movi	d0, #0000000000000000
Ltmp39:
	b	LBB0_21
Ltmp40:
LBB0_18:
	;DEBUG_VALUE: k <- 0
	;DEBUG_VALUE: normalize_rows:mean <- $d0
	;DEBUG_VALUE: normalize_rows:len <- 0.000000e+00
	;DEBUG_VALUE: normalize_rows:normalized <- $x3
	;DEBUG_VALUE: normalize_rows:data <- $x2
	;DEBUG_VALUE: normalize_rows:nx <- $w1
	;DEBUG_VALUE: normalize_rows:a <- $w0
	.loc	0 17 5                          ; cp.cc:17:5
	add	x12, x10, x9, lsl #3
	and	x11, x8, #0x7ffffffc
	movi	d0, #0000000000000000
Ltmp41:
	.loc	0 0 5                           ; cp.cc:0:5
	mov	x13, x11
Ltmp42:
LBB0_19:                                ; =>This Inner Loop Header: Depth=1
	;DEBUG_VALUE: k <- 0
	;DEBUG_VALUE: normalize_rows:len <- 0.000000e+00
	;DEBUG_VALUE: normalize_rows:normalized <- $x3
	;DEBUG_VALUE: normalize_rows:data <- $x2
	;DEBUG_VALUE: normalize_rows:nx <- $w1
	;DEBUG_VALUE: normalize_rows:a <- $w0
	.loc	0 18 16 is_stmt 1               ; cp.cc:18:16
	ldr	d1, [x12]
	ldr	d2, [x12, #24]
	fmul	d1, d1, d1
	ldur	q3, [x12, #8]
	fmul.2d	v3, v3, v3
	fmul	d2, d2, d2
	fadd	d0, d0, d1
	fadd	d0, d0, d3
	mov	d1, v3[1]
	fadd	d0, d0, d1
	fadd	d0, d0, d2
Ltmp43:
	.loc	0 17 26                         ; cp.cc:17:26
	add	x12, x12, #32
	subs	x13, x13, #4
	b.ne	LBB0_19
Ltmp44:
; %bb.20:
	;DEBUG_VALUE: k <- 0
	;DEBUG_VALUE: normalize_rows:len <- 0.000000e+00
	;DEBUG_VALUE: normalize_rows:normalized <- $x3
	;DEBUG_VALUE: normalize_rows:data <- $x2
	;DEBUG_VALUE: normalize_rows:nx <- $w1
	;DEBUG_VALUE: normalize_rows:a <- $w0
	.loc	0 17 5 is_stmt 0                ; cp.cc:17:5
	cmp	x11, x8
	b.eq	LBB0_23
Ltmp45:
LBB0_21:
	;DEBUG_VALUE: k <- 0
	;DEBUG_VALUE: normalize_rows:len <- 0.000000e+00
	;DEBUG_VALUE: normalize_rows:normalized <- $x3
	;DEBUG_VALUE: normalize_rows:data <- $x2
	;DEBUG_VALUE: normalize_rows:nx <- $w1
	;DEBUG_VALUE: normalize_rows:a <- $w0
	lsl	x12, x11, #3
	add	x12, x12, x9, lsl #3
	add	x10, x10, x12
	sub	x11, x8, x11
Ltmp46:
LBB0_22:                                ; =>This Inner Loop Header: Depth=1
	;DEBUG_VALUE: normalize_rows:normalized <- $x3
	;DEBUG_VALUE: normalize_rows:data <- $x2
	;DEBUG_VALUE: normalize_rows:nx <- $w1
	;DEBUG_VALUE: normalize_rows:a <- $w0
	;DEBUG_VALUE: normalize_rows:len <- $d0
	;DEBUG_VALUE: k <- [DW_OP_LLVM_arg 0, DW_OP_consts 8, DW_OP_LLVM_arg 0, DW_OP_LLVM_arg 0, DW_OP_mul, DW_OP_LLVM_convert 64 5, DW_OP_mul, DW_OP_consts 8, DW_OP_LLVM_arg 0, DW_OP_mul, DW_OP_plus, DW_OP_LLVM_arg 0, DW_OP_plus, DW_OP_minus, DW_OP_consts 8, DW_OP_div, DW_OP_LLVM_arg 0, DW_OP_plus, DW_OP_stack_value] undef
	;DEBUG_VALUE: operator[]:this <- $x3
	;DEBUG_VALUE: operator[]:__n <- [DW_OP_LLVM_arg 0, DW_OP_consts 8, DW_OP_LLVM_arg 0, DW_OP_LLVM_arg 0, DW_OP_mul, DW_OP_LLVM_convert 64 5, DW_OP_mul, DW_OP_consts 8, DW_OP_LLVM_arg 0, DW_OP_mul, DW_OP_plus, DW_OP_LLVM_arg 0, DW_OP_plus, DW_OP_minus, DW_OP_consts 8, DW_OP_div, DW_OP_LLVM_arg 0, DW_OP_plus, DW_OP_LLVM_arg 0, DW_OP_plus, DW_OP_stack_value] undef
	.loc	0 18 16 is_stmt 1               ; cp.cc:18:16
	ldr	d1, [x10], #8
Ltmp47:
	;DEBUG_VALUE: operator[]:__n <- [DW_OP_LLVM_arg 0, DW_OP_consts 8, DW_OP_LLVM_arg 0, DW_OP_LLVM_arg 0, DW_OP_mul, DW_OP_LLVM_convert 64 5, DW_OP_mul, DW_OP_consts 8, DW_OP_LLVM_arg 0, DW_OP_mul, DW_OP_plus, DW_OP_LLVM_arg 0, DW_OP_plus, DW_OP_minus, DW_OP_consts 8, DW_OP_div, DW_OP_LLVM_arg 0, DW_OP_plus, DW_OP_LLVM_arg 0, DW_OP_plus, DW_OP_stack_value] undef
	;DEBUG_VALUE: operator[]:this <- $x3
	.loc	0 18 13 is_stmt 0               ; cp.cc:18:13
	fmadd	d0, d1, d1, d0
Ltmp48:
	;DEBUG_VALUE: k <- [DW_OP_LLVM_arg 0, DW_OP_consts 8, DW_OP_LLVM_arg 0, DW_OP_LLVM_arg 0, DW_OP_mul, DW_OP_LLVM_convert 64 5, DW_OP_mul, DW_OP_consts 8, DW_OP_LLVM_arg 0, DW_OP_mul, DW_OP_plus, DW_OP_LLVM_arg 0, DW_OP_plus, DW_OP_minus, DW_OP_consts 8, DW_OP_div, DW_OP_consts 1, DW_OP_LLVM_arg 0, DW_OP_plus, DW_OP_plus, DW_OP_stack_value] undef
	;DEBUG_VALUE: normalize_rows:len <- $d0
	.loc	0 17 20 is_stmt 1               ; cp.cc:17:20
	subs	x11, x11, #1
Ltmp49:
	.loc	0 17 5 is_stmt 0                ; cp.cc:17:5
	b.ne	LBB0_22
Ltmp50:
LBB0_23:
	;DEBUG_VALUE: normalize_rows:normalized <- $x3
	;DEBUG_VALUE: normalize_rows:data <- $x2
	;DEBUG_VALUE: normalize_rows:nx <- $w1
	;DEBUG_VALUE: normalize_rows:a <- $w0
	.loc	0 0 5                           ; cp.cc:0:5
	ldr	x10, [x3]
	.loc	0 20 11 is_stmt 1               ; cp.cc:20:11
	fsqrt	d0, d0
Ltmp51:
	;DEBUG_VALUE: k <- 0
	;DEBUG_VALUE: normalize_rows:len <- $d0
	.loc	0 23 5                          ; cp.cc:23:5
	cmp	w1, #7
	b.hi	LBB0_25
Ltmp52:
; %bb.24:
	;DEBUG_VALUE: k <- 0
	;DEBUG_VALUE: normalize_rows:len <- $d0
	;DEBUG_VALUE: normalize_rows:normalized <- $x3
	;DEBUG_VALUE: normalize_rows:data <- $x2
	;DEBUG_VALUE: normalize_rows:nx <- $w1
	;DEBUG_VALUE: normalize_rows:a <- $w0
	.loc	0 0 5 is_stmt 0                 ; cp.cc:0:5
	mov	x11, #0                         ; =0x0
	b	LBB0_28
Ltmp53:
LBB0_25:
	;DEBUG_VALUE: k <- 0
	;DEBUG_VALUE: normalize_rows:len <- $d0
	;DEBUG_VALUE: normalize_rows:normalized <- $x3
	;DEBUG_VALUE: normalize_rows:data <- $x2
	;DEBUG_VALUE: normalize_rows:nx <- $w1
	;DEBUG_VALUE: normalize_rows:a <- $w0
	.loc	0 23 5                          ; cp.cc:23:5
	and	x11, x8, #0x7ffffff8
	dup.2d	v1, v0[0]
	add	x12, x10, x9, lsl #3
	add	x12, x12, #32
	mov	x13, x11
Ltmp54:
LBB0_26:                                ; =>This Inner Loop Header: Depth=1
	;DEBUG_VALUE: k <- 0
	;DEBUG_VALUE: normalize_rows:len <- $d0
	;DEBUG_VALUE: normalize_rows:normalized <- $x3
	;DEBUG_VALUE: normalize_rows:data <- $x2
	;DEBUG_VALUE: normalize_rows:nx <- $w1
	;DEBUG_VALUE: normalize_rows:a <- $w0
	.loc	0 24 32 is_stmt 1               ; cp.cc:24:32
	ldp	q2, q3, [x12, #-32]
	ldp	q4, q5, [x12]
	.loc	0 24 52 is_stmt 0               ; cp.cc:24:52
	fdiv.2d	v2, v2, v1
	fdiv.2d	v3, v3, v1
	fdiv.2d	v4, v4, v1
	fdiv.2d	v5, v5, v1
	.loc	0 24 30                         ; cp.cc:24:30
	stp	q2, q3, [x12, #-32]
	stp	q4, q5, [x12], #64
Ltmp55:
	.loc	0 23 26 is_stmt 1               ; cp.cc:23:26
	subs	x13, x13, #8
	b.ne	LBB0_26
Ltmp56:
; %bb.27:
	;DEBUG_VALUE: k <- 0
	;DEBUG_VALUE: normalize_rows:len <- $d0
	;DEBUG_VALUE: normalize_rows:normalized <- $x3
	;DEBUG_VALUE: normalize_rows:data <- $x2
	;DEBUG_VALUE: normalize_rows:nx <- $w1
	;DEBUG_VALUE: normalize_rows:a <- $w0
	.loc	0 23 5 is_stmt 0                ; cp.cc:23:5
	cmp	x11, x8
	b.eq	LBB0_30
Ltmp57:
LBB0_28:
	;DEBUG_VALUE: k <- 0
	;DEBUG_VALUE: normalize_rows:len <- $d0
	;DEBUG_VALUE: normalize_rows:normalized <- $x3
	;DEBUG_VALUE: normalize_rows:data <- $x2
	;DEBUG_VALUE: normalize_rows:nx <- $w1
	;DEBUG_VALUE: normalize_rows:a <- $w0
	lsl	x12, x11, #3
	add	x9, x12, x9, lsl #3
	add	x9, x10, x9
	sub	x8, x8, x11
Ltmp58:
LBB0_29:                                ; =>This Inner Loop Header: Depth=1
	;DEBUG_VALUE: normalize_rows:len <- $d0
	;DEBUG_VALUE: normalize_rows:normalized <- $x3
	;DEBUG_VALUE: normalize_rows:data <- $x2
	;DEBUG_VALUE: normalize_rows:nx <- $w1
	;DEBUG_VALUE: normalize_rows:a <- $w0
	;DEBUG_VALUE: k <- [DW_OP_LLVM_arg 0, DW_OP_consts 8, DW_OP_LLVM_arg 0, DW_OP_LLVM_arg 0, DW_OP_mul, DW_OP_LLVM_convert 64 5, DW_OP_mul, DW_OP_consts 8, DW_OP_LLVM_arg 0, DW_OP_mul, DW_OP_plus, DW_OP_LLVM_arg 0, DW_OP_plus, DW_OP_minus, DW_OP_consts 8, DW_OP_div, DW_OP_LLVM_arg 0, DW_OP_plus, DW_OP_stack_value] undef
	;DEBUG_VALUE: operator[]:this <- undef
	;DEBUG_VALUE: operator[]:__n <- [DW_OP_LLVM_arg 0, DW_OP_consts 8, DW_OP_LLVM_arg 0, DW_OP_LLVM_arg 0, DW_OP_mul, DW_OP_LLVM_convert 64 5, DW_OP_mul, DW_OP_consts 8, DW_OP_LLVM_arg 0, DW_OP_mul, DW_OP_plus, DW_OP_LLVM_arg 0, DW_OP_plus, DW_OP_minus, DW_OP_consts 8, DW_OP_div, DW_OP_LLVM_arg 0, DW_OP_plus, DW_OP_LLVM_arg 0, DW_OP_plus, DW_OP_stack_value] undef
	.loc	0 24 32 is_stmt 1               ; cp.cc:24:32
	ldr	d1, [x9]
	.loc	0 24 52 is_stmt 0               ; cp.cc:24:52
	fdiv	d1, d1, d0
Ltmp59:
	;DEBUG_VALUE: operator[]:__n <- [DW_OP_LLVM_arg 0, DW_OP_consts 8, DW_OP_LLVM_arg 0, DW_OP_LLVM_arg 0, DW_OP_mul, DW_OP_LLVM_convert 64 5, DW_OP_mul, DW_OP_consts 8, DW_OP_LLVM_arg 0, DW_OP_mul, DW_OP_plus, DW_OP_LLVM_arg 0, DW_OP_plus, DW_OP_minus, DW_OP_consts 8, DW_OP_div, DW_OP_LLVM_arg 0, DW_OP_plus, DW_OP_LLVM_arg 0, DW_OP_plus, DW_OP_stack_value] undef
	;DEBUG_VALUE: operator[]:this <- undef
	.loc	0 24 30                         ; cp.cc:24:30
	str	d1, [x9], #8
Ltmp60:
	;DEBUG_VALUE: k <- [DW_OP_LLVM_arg 0, DW_OP_consts 8, DW_OP_LLVM_arg 0, DW_OP_LLVM_arg 0, DW_OP_mul, DW_OP_LLVM_convert 64 5, DW_OP_mul, DW_OP_consts 8, DW_OP_LLVM_arg 0, DW_OP_mul, DW_OP_plus, DW_OP_LLVM_arg 0, DW_OP_plus, DW_OP_minus, DW_OP_consts 8, DW_OP_div, DW_OP_consts 1, DW_OP_LLVM_arg 0, DW_OP_plus, DW_OP_plus, DW_OP_stack_value] undef
	.loc	0 23 20 is_stmt 1               ; cp.cc:23:20
	subs	x8, x8, #1
Ltmp61:
	.loc	0 23 5 is_stmt 0                ; cp.cc:23:5
	b.ne	LBB0_29
Ltmp62:
LBB0_30:
	;DEBUG_VALUE: normalize_rows:len <- $d0
	;DEBUG_VALUE: normalize_rows:normalized <- $x3
	;DEBUG_VALUE: normalize_rows:data <- $x2
	;DEBUG_VALUE: normalize_rows:nx <- $w1
	;DEBUG_VALUE: normalize_rows:a <- $w0
	.loc	0 26 1 is_stmt 1                ; cp.cc:26:1
	ret
Ltmp63:
Lfunc_end0:
	.cfi_endproc
                                        ; -- End function
	.globl	__Z14correlate_rowsiiiRNSt3__16vectorIdNS_9allocatorIdEEEE ; -- Begin function _Z14correlate_rowsiiiRNSt3__16vectorIdNS_9allocatorIdEEEE
	.p2align	2
__Z14correlate_rowsiiiRNSt3__16vectorIdNS_9allocatorIdEEEE: ; @_Z14correlate_rowsiiiRNSt3__16vectorIdNS_9allocatorIdEEEE
Lfunc_begin1:
	.cfi_startproc
; %bb.0:
	;DEBUG_VALUE: correlate_rows:a <- $w0
	;DEBUG_VALUE: correlate_rows:b <- $w1
	;DEBUG_VALUE: correlate_rows:nx <- $w2
	;DEBUG_VALUE: correlate_rows:normalized <- $x3
	;DEBUG_VALUE: correlate_rows:correlation <- 0.000000e+00
	;DEBUG_VALUE: i <- 0
	.loc	0 31 5 prologue_end             ; cp.cc:31:5
	cmp	w2, #1
	b.lt	LBB1_3
Ltmp64:
; %bb.1:
	;DEBUG_VALUE: i <- 0
	;DEBUG_VALUE: correlate_rows:correlation <- 0.000000e+00
	;DEBUG_VALUE: correlate_rows:normalized <- $x3
	;DEBUG_VALUE: correlate_rows:nx <- $w2
	;DEBUG_VALUE: correlate_rows:b <- $w1
	;DEBUG_VALUE: correlate_rows:a <- $w0
	.loc	0 0 5 is_stmt 0                 ; cp.cc:0:5
	mul	w9, w2, w0
	ldr	x8, [x3]
	mul	w11, w2, w1
	.loc	0 31 5                          ; cp.cc:31:5
	sxtw	x10, w9
	sxtw	x11, w11
Ltmp65:
	.loc	0 31 20                         ; cp.cc:31:20
	mov	w9, w2
Ltmp66:
	.loc	0 31 5                          ; cp.cc:31:5
	cmp	w2, #7
	b.hi	LBB1_4
Ltmp67:
; %bb.2:
	;DEBUG_VALUE: i <- 0
	;DEBUG_VALUE: correlate_rows:correlation <- 0.000000e+00
	;DEBUG_VALUE: correlate_rows:normalized <- $x3
	;DEBUG_VALUE: correlate_rows:nx <- $w2
	;DEBUG_VALUE: correlate_rows:b <- $w1
	;DEBUG_VALUE: correlate_rows:a <- $w0
	.loc	0 0 5                           ; cp.cc:0:5
	mov	x12, #0                         ; =0x0
	movi	d0, #0000000000000000
	b	LBB1_7
Ltmp68:
LBB1_3:
	;DEBUG_VALUE: correlate_rows:correlation <- 0.000000e+00
	;DEBUG_VALUE: correlate_rows:normalized <- $x3
	;DEBUG_VALUE: correlate_rows:nx <- $w2
	;DEBUG_VALUE: correlate_rows:b <- $w1
	;DEBUG_VALUE: correlate_rows:a <- $w0
	movi	d0, #0000000000000000
	.loc	0 34 5 is_stmt 1                ; cp.cc:34:5
	ret
Ltmp69:
LBB1_4:
	;DEBUG_VALUE: i <- 0
	;DEBUG_VALUE: correlate_rows:correlation <- 0.000000e+00
	;DEBUG_VALUE: correlate_rows:normalized <- $x3
	;DEBUG_VALUE: correlate_rows:nx <- $w2
	;DEBUG_VALUE: correlate_rows:b <- $w1
	;DEBUG_VALUE: correlate_rows:a <- $w0
	.loc	0 31 5                          ; cp.cc:31:5
	and	x12, x9, #0x7ffffff8
	add	x13, x8, x11, lsl #3
	add	x13, x13, #32
	add	x14, x8, x10, lsl #3
	add	x14, x14, #32
	movi	d0, #0000000000000000
	mov	x15, x12
Ltmp70:
LBB1_5:                                 ; =>This Inner Loop Header: Depth=1
	;DEBUG_VALUE: i <- 0
	;DEBUG_VALUE: correlate_rows:correlation <- 0.000000e+00
	;DEBUG_VALUE: correlate_rows:normalized <- $x3
	;DEBUG_VALUE: correlate_rows:nx <- $w2
	;DEBUG_VALUE: correlate_rows:b <- $w1
	;DEBUG_VALUE: correlate_rows:a <- $w0
	.loc	0 32 24                         ; cp.cc:32:24
	ldp	q1, q2, [x14, #-32]
	ldp	q3, q4, [x14], #64
	.loc	0 32 43 is_stmt 0               ; cp.cc:32:43
	ldp	q5, q6, [x13, #-32]
	ldp	q7, q16, [x13], #64
	fmul.2d	v1, v1, v5
	mov	d5, v1[1]
	fmul.2d	v2, v2, v6
	mov	d6, v2[1]
	fmul.2d	v3, v3, v7
	mov	d7, v3[1]
	fmul.2d	v4, v4, v16
	mov	d16, v4[1]
	fadd	d0, d0, d1
	fadd	d0, d0, d5
	fadd	d0, d0, d2
	fadd	d0, d0, d6
	fadd	d0, d0, d3
	fadd	d0, d0, d7
	fadd	d0, d0, d4
	fadd	d0, d0, d16
Ltmp71:
	.loc	0 31 26 is_stmt 1               ; cp.cc:31:26
	subs	x15, x15, #8
	b.ne	LBB1_5
Ltmp72:
; %bb.6:
	;DEBUG_VALUE: i <- 0
	;DEBUG_VALUE: correlate_rows:correlation <- 0.000000e+00
	;DEBUG_VALUE: correlate_rows:normalized <- $x3
	;DEBUG_VALUE: correlate_rows:nx <- $w2
	;DEBUG_VALUE: correlate_rows:b <- $w1
	;DEBUG_VALUE: correlate_rows:a <- $w0
	.loc	0 31 5 is_stmt 0                ; cp.cc:31:5
	cmp	x12, x9
	b.eq	LBB1_9
Ltmp73:
LBB1_7:
	;DEBUG_VALUE: i <- 0
	;DEBUG_VALUE: correlate_rows:correlation <- 0.000000e+00
	;DEBUG_VALUE: correlate_rows:normalized <- $x3
	;DEBUG_VALUE: correlate_rows:nx <- $w2
	;DEBUG_VALUE: correlate_rows:b <- $w1
	;DEBUG_VALUE: correlate_rows:a <- $w0
	lsl	x13, x12, #3
	add	x11, x13, x11, lsl #3
	add	x11, x8, x11
	add	x10, x13, x10, lsl #3
	add	x8, x8, x10
	sub	x9, x9, x12
Ltmp74:
LBB1_8:                                 ; =>This Inner Loop Header: Depth=1
	;DEBUG_VALUE: correlate_rows:normalized <- $x3
	;DEBUG_VALUE: correlate_rows:nx <- $w2
	;DEBUG_VALUE: correlate_rows:b <- $w1
	;DEBUG_VALUE: correlate_rows:a <- $w0
	;DEBUG_VALUE: correlate_rows:correlation <- $d0
	;DEBUG_VALUE: i <- [DW_OP_LLVM_arg 0, DW_OP_consts 8, DW_OP_LLVM_arg 0, DW_OP_LLVM_arg 0, DW_OP_mul, DW_OP_LLVM_convert 64 5, DW_OP_mul, DW_OP_consts 8, DW_OP_LLVM_arg 0, DW_OP_mul, DW_OP_plus, DW_OP_LLVM_arg 0, DW_OP_plus, DW_OP_minus, DW_OP_consts 8, DW_OP_div, DW_OP_LLVM_arg 0, DW_OP_plus, DW_OP_stack_value] undef
	;DEBUG_VALUE: operator[]:this <- undef
	;DEBUG_VALUE: operator[]:__n <- [DW_OP_LLVM_arg 0, DW_OP_consts 8, DW_OP_LLVM_arg 0, DW_OP_LLVM_arg 0, DW_OP_mul, DW_OP_LLVM_convert 64 5, DW_OP_mul, DW_OP_consts 8, DW_OP_LLVM_arg 0, DW_OP_mul, DW_OP_plus, DW_OP_LLVM_arg 0, DW_OP_plus, DW_OP_minus, DW_OP_consts 8, DW_OP_div, DW_OP_LLVM_arg 0, DW_OP_plus, DW_OP_LLVM_arg 0, DW_OP_plus, DW_OP_stack_value] undef
	.loc	0 32 24 is_stmt 1               ; cp.cc:32:24
	ldr	d1, [x8], #8
Ltmp75:
	;DEBUG_VALUE: operator[]:__n <- [DW_OP_LLVM_arg 0, DW_OP_consts 8, DW_OP_LLVM_arg 0, DW_OP_LLVM_arg 0, DW_OP_mul, DW_OP_LLVM_convert 64 5, DW_OP_mul, DW_OP_consts 8, DW_OP_LLVM_arg 0, DW_OP_mul, DW_OP_plus, DW_OP_LLVM_arg 0, DW_OP_plus, DW_OP_minus, DW_OP_consts 8, DW_OP_div, DW_OP_LLVM_arg 0, DW_OP_plus, DW_OP_LLVM_arg 0, DW_OP_plus, DW_OP_stack_value] undef
	;DEBUG_VALUE: operator[]:this <- undef
	.loc	0 32 43 is_stmt 0               ; cp.cc:32:43
	ldr	d2, [x11], #8
	.loc	0 32 21                         ; cp.cc:32:21
	fmadd	d0, d1, d2, d0
Ltmp76:
	;DEBUG_VALUE: i <- [DW_OP_LLVM_arg 0, DW_OP_consts 8, DW_OP_LLVM_arg 0, DW_OP_LLVM_arg 0, DW_OP_mul, DW_OP_LLVM_convert 64 5, DW_OP_mul, DW_OP_consts 8, DW_OP_LLVM_arg 0, DW_OP_mul, DW_OP_plus, DW_OP_LLVM_arg 0, DW_OP_plus, DW_OP_minus, DW_OP_consts 8, DW_OP_div, DW_OP_consts 1, DW_OP_LLVM_arg 0, DW_OP_plus, DW_OP_plus, DW_OP_stack_value] undef
	;DEBUG_VALUE: correlate_rows:correlation <- $d0
	.loc	0 31 20 is_stmt 1               ; cp.cc:31:20
	subs	x9, x9, #1
Ltmp77:
	.loc	0 31 5 is_stmt 0                ; cp.cc:31:5
	b.ne	LBB1_8
Ltmp78:
LBB1_9:
	;DEBUG_VALUE: correlate_rows:normalized <- $x3
	;DEBUG_VALUE: correlate_rows:nx <- $w2
	;DEBUG_VALUE: correlate_rows:b <- $w1
	;DEBUG_VALUE: correlate_rows:a <- $w0
	.loc	0 34 12 is_stmt 1               ; cp.cc:34:12
	fcvt	s0, d0
	.loc	0 34 5 is_stmt 0                ; cp.cc:34:5
	ret
Ltmp79:
Lfunc_end1:
	.cfi_endproc
                                        ; -- End function
	.globl	__Z9correlateiiPKfPf            ; -- Begin function _Z9correlateiiPKfPf
	.p2align	2
__Z9correlateiiPKfPf:                   ; @_Z9correlateiiPKfPf
Lfunc_begin2:
	.loc	0 45 0 is_stmt 1                ; cp.cc:45:0
	.cfi_startproc
	.cfi_personality 155, ___gxx_personality_v0
	.cfi_lsda 16, Lexception0
; %bb.0:
	;DEBUG_VALUE: correlate:ny <- $w0
	;DEBUG_VALUE: correlate:nx <- $w1
	;DEBUG_VALUE: correlate:data <- $x2
	;DEBUG_VALUE: correlate:result <- $x3
	sub	sp, sp, #96
	stp	x24, x23, [sp, #32]             ; 16-byte Folded Spill
	stp	x22, x21, [sp, #48]             ; 16-byte Folded Spill
	stp	x20, x19, [sp, #64]             ; 16-byte Folded Spill
	stp	x29, x30, [sp, #80]             ; 16-byte Folded Spill
	add	x29, sp, #80
	.cfi_def_cfa w29, 16
	.cfi_offset w30, -8
	.cfi_offset w29, -16
	.cfi_offset w19, -24
	.cfi_offset w20, -32
	.cfi_offset w21, -40
	.cfi_offset w22, -48
	.cfi_offset w23, -56
	.cfi_offset w24, -64
	mov	x19, x3
Ltmp80:
	;DEBUG_VALUE: correlate:result <- $x19
	mov	x23, x2
Ltmp81:
	;DEBUG_VALUE: correlate:data <- $x23
	mov	x21, x1
Ltmp82:
	;DEBUG_VALUE: correlate:nx <- $w21
	mov	x22, x0
Ltmp83:
	;DEBUG_VALUE: correlate:ny <- $w22
	.loc	0 46 38 prologue_end            ; cp.cc:46:38
	mul	w8, w1, w0
Ltmp84:
	;DEBUG_VALUE: vector:__n <- [DW_OP_LLVM_convert 32 5, DW_OP_LLVM_convert 64 5, DW_OP_stack_value] $w8
	;DEBUG_VALUE: vector:this <- [DW_OP_plus_uconst 8, DW_OP_stack_value] $sp
	;DEBUG_VALUE: ~__exception_guard_exceptions:this <- undef
	;DEBUG_VALUE: ~__exception_guard_exceptions:this <- undef
	;DEBUG_VALUE: operator():this <- undef
	;DEBUG_VALUE: ~__exception_guard_exceptions:this <- undef
	;DEBUG_VALUE: ~__exception_guard_exceptions:this <- undef
	;DEBUG_VALUE: operator():this <- undef
	;DEBUG_VALUE: vector:__n <- [DW_OP_LLVM_convert 32 5, DW_OP_LLVM_convert 64 5, DW_OP_stack_value] $w8
	;DEBUG_VALUE: vector:this <- [DW_OP_plus_uconst 8, DW_OP_stack_value] $sp
	.loc	1 767 11                        ; /Library/Developer/CommandLineTools/SDKs/MacOSX.sdk/usr/include/c++/v1/vector:767:11
	stp	xzr, xzr, [sp, #8]
	str	xzr, [sp, #24]
Ltmp85:
	;DEBUG_VALUE: __guard <- [DW_OP_LLVM_fragment 64 8] 0
	;DEBUG_VALUE: __guard <- [DW_OP_plus_uconst 8, DW_OP_stack_value, DW_OP_LLVM_fragment 0 64] $sp
	.loc	1 443 9                         ; /Library/Developer/CommandLineTools/SDKs/MacOSX.sdk/usr/include/c++/v1/vector:443:9
	cbz	w8, LBB2_4
Ltmp86:
; %bb.1:
	;DEBUG_VALUE: __guard <- [DW_OP_plus_uconst 8, DW_OP_stack_value, DW_OP_LLVM_fragment 0 64] $sp
	;DEBUG_VALUE: __guard <- [DW_OP_LLVM_fragment 64 8] 0
	;DEBUG_VALUE: vector:this <- [DW_OP_plus_uconst 8, DW_OP_stack_value] $sp
	;DEBUG_VALUE: vector:__n <- [DW_OP_LLVM_convert 32 5, DW_OP_LLVM_convert 64 5, DW_OP_stack_value] $w8
	;DEBUG_VALUE: vector:this <- [DW_OP_plus_uconst 8, DW_OP_stack_value] $sp
	;DEBUG_VALUE: vector:__n <- [DW_OP_LLVM_convert 32 5, DW_OP_LLVM_convert 64 5, DW_OP_stack_value] $w8
	;DEBUG_VALUE: correlate:ny <- $w22
	;DEBUG_VALUE: correlate:nx <- $w21
	;DEBUG_VALUE: correlate:data <- $x23
	;DEBUG_VALUE: correlate:result <- $x19
	;DEBUG_VALUE: __vallocate:this <- [DW_OP_plus_uconst 8, DW_OP_stack_value] $sp
	;DEBUG_VALUE: __vallocate:__n <- [DW_OP_LLVM_convert 32 5, DW_OP_LLVM_convert 64 5, DW_OP_stack_value] undef
	.loc	1 779 9                         ; /Library/Developer/CommandLineTools/SDKs/MacOSX.sdk/usr/include/c++/v1/vector:779:9
	tbnz	w8, #31, LBB2_62
Ltmp87:
; %bb.2:
	;DEBUG_VALUE: __vallocate:this <- [DW_OP_plus_uconst 8, DW_OP_stack_value] $sp
	;DEBUG_VALUE: __guard <- [DW_OP_plus_uconst 8, DW_OP_stack_value, DW_OP_LLVM_fragment 0 64] $sp
	;DEBUG_VALUE: __guard <- [DW_OP_LLVM_fragment 64 8] 0
	;DEBUG_VALUE: vector:this <- [DW_OP_plus_uconst 8, DW_OP_stack_value] $sp
	;DEBUG_VALUE: vector:__n <- [DW_OP_LLVM_convert 32 5, DW_OP_LLVM_convert 64 5, DW_OP_stack_value] $w8
	;DEBUG_VALUE: vector:this <- [DW_OP_plus_uconst 8, DW_OP_stack_value] $sp
	;DEBUG_VALUE: vector:__n <- [DW_OP_LLVM_convert 32 5, DW_OP_LLVM_convert 64 5, DW_OP_stack_value] $w8
	;DEBUG_VALUE: correlate:ny <- $w22
	;DEBUG_VALUE: correlate:nx <- $w21
	;DEBUG_VALUE: correlate:data <- $x23
	;DEBUG_VALUE: correlate:result <- $x19
	;DEBUG_VALUE: __allocate_at_least<std::__1::allocator<double> >:__alloc <- [DW_OP_plus_uconst 8, DW_OP_plus_uconst 16, DW_OP_stack_value] $sp
	;DEBUG_VALUE: allocate:this <- [DW_OP_plus_uconst 8, DW_OP_plus_uconst 16, DW_OP_stack_value] $sp
	.loc	3 118 59                        ; /Library/Developer/CommandLineTools/SDKs/MacOSX.sdk/usr/include/c++/v1/__memory/allocator.h:118:59
	lsl	x24, x8, #3
Ltmp0:
Ltmp88:
	;DEBUG_VALUE: __libcpp_allocate:__align <- 8
	;DEBUG_VALUE: __libcpp_operator_new<unsigned long>:__args <- $x24
	;DEBUG_VALUE: __libcpp_allocate:__size <- $x24
	.file	18 "/Library/Developer/CommandLineTools/SDKs/MacOSX.sdk/usr/include/c++/v1" "new"
	.loc	18 297 10                       ; /Library/Developer/CommandLineTools/SDKs/MacOSX.sdk/usr/include/c++/v1/new:297:10
	mov	x0, x24
	bl	__Znwm
Ltmp89:
Ltmp1:
	;DEBUG_VALUE: allocate:__n <- [DW_OP_LLVM_convert 32 5, DW_OP_LLVM_convert 64 5, DW_OP_stack_value] undef
	;DEBUG_VALUE: __allocate_at_least<std::__1::allocator<double> >:__n <- [DW_OP_LLVM_convert 32 5, DW_OP_LLVM_convert 64 5, DW_OP_stack_value] undef
; %bb.3:
	;DEBUG_VALUE: __vallocate:this <- [DW_OP_plus_uconst 8, DW_OP_stack_value] $sp
	;DEBUG_VALUE: __guard <- [DW_OP_plus_uconst 8, DW_OP_stack_value, DW_OP_LLVM_fragment 0 64] $sp
	;DEBUG_VALUE: __guard <- [DW_OP_LLVM_fragment 64 8] 0
	;DEBUG_VALUE: vector:this <- [DW_OP_plus_uconst 8, DW_OP_stack_value] $sp
	;DEBUG_VALUE: vector:this <- [DW_OP_plus_uconst 8, DW_OP_stack_value] $sp
	;DEBUG_VALUE: correlate:ny <- $w22
	;DEBUG_VALUE: correlate:nx <- $w21
	;DEBUG_VALUE: correlate:data <- $x23
	;DEBUG_VALUE: correlate:result <- $x19
	.loc	1 0 0 is_stmt 0                 ; /Library/Developer/CommandLineTools/SDKs/MacOSX.sdk/usr/include/c++/v1/vector:0:0
	mov	x20, x0
Ltmp90:
	;DEBUG_VALUE: __vallocate:__allocation <- [DW_OP_LLVM_fragment 0 64] $x20
	;DEBUG_VALUE: ~_ConstructTransaction:this <- undef
	;DEBUG_VALUE: ~_ConstructTransaction:this <- undef
	;DEBUG_VALUE: ~_ConstructTransaction:this <- undef
	;DEBUG_VALUE: ~_ConstructTransaction:this <- undef
	;DEBUG_VALUE: __construct_at_end:this <- [DW_OP_plus_uconst 8, DW_OP_stack_value] $sp
	;DEBUG_VALUE: __construct_at_end:__tx <- [DW_OP_plus_uconst 8, DW_OP_stack_value, DW_OP_LLVM_fragment 0 64] $sp
	;DEBUG_VALUE: __construct_at_end:__tx <- [DW_OP_LLVM_arg 0, DW_OP_LLVM_arg 0, DW_OP_LLVM_convert 32 5, DW_OP_LLVM_convert 64 5, DW_OP_constu 8, DW_OP_mul, DW_OP_plus, DW_OP_stack_value, DW_OP_LLVM_fragment 128 64] undef
	;DEBUG_VALUE: __construct_at_end:__new_end <- [DW_OP_LLVM_arg 0, DW_OP_LLVM_arg 0, DW_OP_LLVM_convert 32 5, DW_OP_LLVM_convert 64 5, DW_OP_constu 8, DW_OP_mul, DW_OP_plus, DW_OP_stack_value] undef
	;DEBUG_VALUE: __pos <- $x20
	;DEBUG_VALUE: __construct_at_end:__tx <- [DW_OP_LLVM_fragment 64 64] $x20
	.loc	3 165 5 is_stmt 1               ; /Library/Developer/CommandLineTools/SDKs/MacOSX.sdk/usr/include/c++/v1/__memory/allocator.h:165:5
	mov	x1, x24
	bl	_bzero
Ltmp91:
	;DEBUG_VALUE: __construct_at_end:__n <- [DW_OP_LLVM_convert 32 5, DW_OP_LLVM_convert 64 5, DW_OP_stack_value] undef
	;DEBUG_VALUE: __vallocate:__allocation <- [DW_OP_LLVM_convert 32 5, DW_OP_LLVM_convert 64 5, DW_OP_stack_value, DW_OP_LLVM_fragment 64 64] undef
	;DEBUG_VALUE: construct<double>:__p <- undef
	;DEBUG_VALUE: construct<double>:this <- [DW_OP_plus_uconst 8, DW_OP_plus_uconst 16, DW_OP_stack_value] $sp
	;DEBUG_VALUE: construct<double, 0>:__p <- undef
	;DEBUG_VALUE: construct<double, 0>:__a <- [DW_OP_plus_uconst 8, DW_OP_plus_uconst 16, DW_OP_stack_value] $sp
	;DEBUG_VALUE: __construct_at_end:__tx <- [DW_OP_LLVM_fragment 64 64] undef
	;DEBUG_VALUE: __pos <- undef
	;DEBUG_VALUE: i <- 0
	.loc	0 47 5                          ; cp.cc:47:5
	cmp	w22, #1
	b.ge	LBB2_5
	b	LBB2_59
Ltmp92:
LBB2_4:
	;DEBUG_VALUE: correlate:ny <- $w22
	;DEBUG_VALUE: correlate:nx <- $w21
	;DEBUG_VALUE: correlate:data <- $x23
	;DEBUG_VALUE: correlate:result <- $x19
	.loc	0 0 5 is_stmt 0                 ; cp.cc:0:5
	mov	x20, #0                         ; =0x0
Ltmp93:
	;DEBUG_VALUE: i <- 0
	.loc	0 47 5                          ; cp.cc:47:5
	cmp	w22, #1
	b.lt	LBB2_59
Ltmp94:
LBB2_5:
	;DEBUG_VALUE: i <- 0
	;DEBUG_VALUE: correlate:ny <- $w22
	;DEBUG_VALUE: correlate:nx <- $w21
	;DEBUG_VALUE: correlate:data <- $x23
	;DEBUG_VALUE: correlate:result <- $x19
	.loc	0 0 5                           ; cp.cc:0:5
	mov	w9, w21
	mov	w8, w22
	cmp	w21, #0
	b.le	LBB2_29
Ltmp95:
; %bb.6:
	;DEBUG_VALUE: i <- 0
	;DEBUG_VALUE: correlate:ny <- $w22
	;DEBUG_VALUE: correlate:nx <- $w21
	;DEBUG_VALUE: correlate:data <- $x23
	;DEBUG_VALUE: correlate:result <- $x19
	mov	x10, #0                         ; =0x0
	scvtf	d0, w21
	and	x11, x9, #0x7ffffff0
	and	x12, x9, #0x7ffffff8
	.loc	0 47 5                          ; cp.cc:47:5
	add	x13, x23, #32
	lsl	x14, x9, #2
	add	x15, x20, #64
	lsl	x16, x9, #3
	add	x17, x20, #32
	mov	x0, x20
	b	LBB2_8
Ltmp96:
LBB2_7:                                 ;   in Loop: Header=BB2_8 Depth=1
	;DEBUG_VALUE: i <- $x10
	;DEBUG_VALUE: correlate:ny <- $w22
	;DEBUG_VALUE: correlate:nx <- $w21
	;DEBUG_VALUE: correlate:result <- $x19
	.loc	0 47 26                         ; cp.cc:47:26
	add	x10, x10, #1
Ltmp97:
	;DEBUG_VALUE: i <- $x10
	.loc	0 47 5                          ; cp.cc:47:5
	add	x13, x13, x14
	add	x23, x23, x14
Ltmp98:
	;DEBUG_VALUE: correlate:data <- [DW_OP_LLVM_entry_value 1] $x2
	add	x15, x15, x16
	add	x0, x0, x16
	add	x17, x17, x16
	cmp	x10, x8
	b.eq	LBB2_31
Ltmp99:
LBB2_8:                                 ; =>This Loop Header: Depth=1
                                        ;     Child Loop BB2_11 Depth 2
                                        ;     Child Loop BB2_14 Depth 2
                                        ;     Child Loop BB2_18 Depth 2
                                        ;     Child Loop BB2_20 Depth 2
                                        ;     Child Loop BB2_22 Depth 2
                                        ;     Child Loop BB2_26 Depth 2
                                        ;     Child Loop BB2_28 Depth 2
	;DEBUG_VALUE: correlate:ny <- $w22
	;DEBUG_VALUE: correlate:nx <- $w21
	;DEBUG_VALUE: correlate:result <- $x19
	;DEBUG_VALUE: i <- $x10
	;DEBUG_VALUE: normalize_rows:a <- $x10
	;DEBUG_VALUE: normalize_rows:nx <- $w21
	;DEBUG_VALUE: normalize_rows:data <- undef
	;DEBUG_VALUE: normalize_rows:normalized <- [DW_OP_plus_uconst 8, DW_OP_stack_value] $sp
	;DEBUG_VALUE: normalize_rows:mean <- 0.000000e+00
	;DEBUG_VALUE: normalize_rows:len <- 0.000000e+00
	.loc	0 8 5 is_stmt 1                 ; cp.cc:8:5
	; InlineAsm Start
	; begin mean
	; InlineAsm End
Ltmp100:
	;DEBUG_VALUE: k <- 0
	.loc	0 9 5                           ; cp.cc:9:5
	cmp	w21, #16
	b.hs	LBB2_10
Ltmp101:
; %bb.9:                                ;   in Loop: Header=BB2_8 Depth=1
	;DEBUG_VALUE: normalize_rows:a <- $x10
	;DEBUG_VALUE: i <- $x10
	;DEBUG_VALUE: k <- 0
	;DEBUG_VALUE: normalize_rows:len <- 0.000000e+00
	;DEBUG_VALUE: normalize_rows:mean <- 0.000000e+00
	;DEBUG_VALUE: normalize_rows:normalized <- [DW_OP_plus_uconst 8, DW_OP_stack_value] $sp
	;DEBUG_VALUE: normalize_rows:nx <- $w21
	;DEBUG_VALUE: correlate:ny <- $w22
	;DEBUG_VALUE: correlate:nx <- $w21
	;DEBUG_VALUE: correlate:result <- $x19
	.loc	0 0 5 is_stmt 0                 ; cp.cc:0:5
	mov	x2, #0                          ; =0x0
	movi	d1, #0000000000000000
	.loc	0 9 5                           ; cp.cc:9:5
	b	LBB2_13
Ltmp102:
LBB2_10:                                ;   in Loop: Header=BB2_8 Depth=1
	;DEBUG_VALUE: normalize_rows:a <- $x10
	;DEBUG_VALUE: i <- $x10
	;DEBUG_VALUE: k <- 0
	;DEBUG_VALUE: normalize_rows:len <- 0.000000e+00
	;DEBUG_VALUE: normalize_rows:mean <- 0.000000e+00
	;DEBUG_VALUE: normalize_rows:normalized <- [DW_OP_plus_uconst 8, DW_OP_stack_value] $sp
	;DEBUG_VALUE: normalize_rows:nx <- $w21
	;DEBUG_VALUE: correlate:ny <- $w22
	;DEBUG_VALUE: correlate:nx <- $w21
	;DEBUG_VALUE: correlate:result <- $x19
	.loc	0 0 5                           ; cp.cc:0:5
	movi	d1, #0000000000000000
	mov	x1, x11
	mov	x2, x13
Ltmp103:
LBB2_11:                                ;   Parent Loop BB2_8 Depth=1
                                        ; =>  This Inner Loop Header: Depth=2
	;DEBUG_VALUE: normalize_rows:a <- $x10
	;DEBUG_VALUE: i <- $x10
	;DEBUG_VALUE: k <- 0
	;DEBUG_VALUE: normalize_rows:len <- 0.000000e+00
	;DEBUG_VALUE: normalize_rows:mean <- 0.000000e+00
	;DEBUG_VALUE: normalize_rows:normalized <- [DW_OP_plus_uconst 8, DW_OP_stack_value] $sp
	;DEBUG_VALUE: normalize_rows:nx <- $w21
	;DEBUG_VALUE: correlate:ny <- $w22
	;DEBUG_VALUE: correlate:nx <- $w21
	;DEBUG_VALUE: correlate:result <- $x19
	.loc	0 10 17 is_stmt 1               ; cp.cc:10:17
	ldp	q2, q3, [x2, #-32]
	ldp	q4, q5, [x2], #64
	fcvtl2	v6.2d, v2.4s
	mov	d7, v6[1]
	fcvtl	v2.2d, v2.2s
	mov	d16, v2[1]
	fcvtl2	v17.2d, v3.4s
	mov	d18, v17[1]
	fcvtl	v3.2d, v3.2s
	mov	d19, v3[1]
	fcvtl2	v20.2d, v4.4s
	mov	d21, v20[1]
	fcvtl	v4.2d, v4.2s
	mov	d22, v4[1]
	fcvtl2	v23.2d, v5.4s
	mov	d24, v23[1]
	fcvtl	v5.2d, v5.2s
	mov	d25, v5[1]
	fadd	d1, d1, d2
	fadd	d1, d1, d16
	fadd	d1, d1, d6
	fadd	d1, d1, d7
	fadd	d1, d1, d3
	fadd	d1, d1, d19
	fadd	d1, d1, d17
	fadd	d1, d1, d18
	fadd	d1, d1, d4
	fadd	d1, d1, d22
	fadd	d1, d1, d20
	fadd	d1, d1, d21
	fadd	d1, d1, d5
	fadd	d1, d1, d25
	fadd	d1, d1, d23
	fadd	d1, d1, d24
Ltmp104:
	.loc	0 9 26                          ; cp.cc:9:26
	subs	x1, x1, #16
	b.ne	LBB2_11
Ltmp105:
; %bb.12:                               ;   in Loop: Header=BB2_8 Depth=1
	;DEBUG_VALUE: normalize_rows:a <- $x10
	;DEBUG_VALUE: i <- $x10
	;DEBUG_VALUE: k <- 0
	;DEBUG_VALUE: normalize_rows:len <- 0.000000e+00
	;DEBUG_VALUE: normalize_rows:mean <- 0.000000e+00
	;DEBUG_VALUE: normalize_rows:normalized <- [DW_OP_plus_uconst 8, DW_OP_stack_value] $sp
	;DEBUG_VALUE: normalize_rows:nx <- $w21
	;DEBUG_VALUE: correlate:ny <- $w22
	;DEBUG_VALUE: correlate:nx <- $w21
	;DEBUG_VALUE: correlate:result <- $x19
	.loc	0 0 26 is_stmt 0                ; cp.cc:0:26
	mov	x2, x11
	.loc	0 9 5                           ; cp.cc:9:5
	cmp	x11, x9
	b.eq	LBB2_15
Ltmp106:
LBB2_13:                                ;   in Loop: Header=BB2_8 Depth=1
	;DEBUG_VALUE: normalize_rows:a <- $x10
	;DEBUG_VALUE: i <- $x10
	;DEBUG_VALUE: k <- 0
	;DEBUG_VALUE: normalize_rows:len <- 0.000000e+00
	;DEBUG_VALUE: normalize_rows:mean <- 0.000000e+00
	;DEBUG_VALUE: normalize_rows:normalized <- [DW_OP_plus_uconst 8, DW_OP_stack_value] $sp
	;DEBUG_VALUE: normalize_rows:nx <- $w21
	;DEBUG_VALUE: correlate:ny <- $w22
	;DEBUG_VALUE: correlate:nx <- $w21
	;DEBUG_VALUE: correlate:result <- $x19
	sub	x1, x9, x2
	add	x2, x23, x2, lsl #2
Ltmp107:
LBB2_14:                                ;   Parent Loop BB2_8 Depth=1
                                        ; =>  This Inner Loop Header: Depth=2
	;DEBUG_VALUE: normalize_rows:a <- $x10
	;DEBUG_VALUE: i <- $x10
	;DEBUG_VALUE: normalize_rows:len <- 0.000000e+00
	;DEBUG_VALUE: normalize_rows:normalized <- [DW_OP_plus_uconst 8, DW_OP_stack_value] $sp
	;DEBUG_VALUE: normalize_rows:nx <- $w21
	;DEBUG_VALUE: correlate:ny <- $w22
	;DEBUG_VALUE: correlate:nx <- $w21
	;DEBUG_VALUE: correlate:result <- $x19
	;DEBUG_VALUE: normalize_rows:mean <- $d1
	;DEBUG_VALUE: k <- [DW_OP_LLVM_arg 0, DW_OP_LLVM_arg 0, DW_OP_LLVM_convert 64 7, DW_OP_consts 18446744073709551615, DW_OP_LLVM_arg 0, DW_OP_mul, DW_OP_plus, DW_OP_minus, DW_OP_consts 18446744073709551615, DW_OP_div, DW_OP_LLVM_arg 0, DW_OP_plus, DW_OP_stack_value] undef
	.loc	0 10 17 is_stmt 1               ; cp.cc:10:17
	ldr	s2, [x2], #4
	fcvt	d2, s2
	.loc	0 10 14 is_stmt 0               ; cp.cc:10:14
	fadd	d1, d1, d2
Ltmp108:
	;DEBUG_VALUE: k <- [DW_OP_LLVM_arg 0, DW_OP_LLVM_arg 0, DW_OP_LLVM_convert 64 7, DW_OP_consts 18446744073709551615, DW_OP_LLVM_arg 0, DW_OP_mul, DW_OP_plus, DW_OP_minus, DW_OP_consts 18446744073709551615, DW_OP_div, DW_OP_consts 1, DW_OP_LLVM_arg 0, DW_OP_plus, DW_OP_plus, DW_OP_stack_value] undef
	;DEBUG_VALUE: normalize_rows:mean <- $d1
	.loc	0 9 20 is_stmt 1                ; cp.cc:9:20
	subs	x1, x1, #1
Ltmp109:
	.loc	0 9 5 is_stmt 0                 ; cp.cc:9:5
	b.ne	LBB2_14
Ltmp110:
LBB2_15:                                ;   in Loop: Header=BB2_8 Depth=1
	;DEBUG_VALUE: normalize_rows:a <- $x10
	;DEBUG_VALUE: i <- $x10
	;DEBUG_VALUE: normalize_rows:len <- 0.000000e+00
	;DEBUG_VALUE: normalize_rows:normalized <- [DW_OP_plus_uconst 8, DW_OP_stack_value] $sp
	;DEBUG_VALUE: normalize_rows:nx <- $w21
	;DEBUG_VALUE: correlate:ny <- $w22
	;DEBUG_VALUE: correlate:nx <- $w21
	;DEBUG_VALUE: correlate:result <- $x19
	.loc	0 13 5 is_stmt 1                ; cp.cc:13:5
	; InlineAsm Start
	; end mean
	; InlineAsm End
	.loc	0 12 17                         ; cp.cc:12:17
	fdiv	d1, d1, d0
Ltmp111:
	;DEBUG_VALUE: k <- 0
	;DEBUG_VALUE: normalize_rows:mean <- $d1
	.loc	0 14 5                          ; cp.cc:14:5
	cmp	w21, #16
	b.hs	LBB2_17
Ltmp112:
; %bb.16:                               ;   in Loop: Header=BB2_8 Depth=1
	;DEBUG_VALUE: normalize_rows:mean <- $d1
	;DEBUG_VALUE: normalize_rows:a <- $x10
	;DEBUG_VALUE: i <- $x10
	;DEBUG_VALUE: k <- 0
	;DEBUG_VALUE: normalize_rows:len <- 0.000000e+00
	;DEBUG_VALUE: normalize_rows:normalized <- [DW_OP_plus_uconst 8, DW_OP_stack_value] $sp
	;DEBUG_VALUE: normalize_rows:nx <- $w21
	;DEBUG_VALUE: correlate:ny <- $w22
	;DEBUG_VALUE: correlate:nx <- $w21
	;DEBUG_VALUE: correlate:result <- $x19
	.loc	0 0 5 is_stmt 0                 ; cp.cc:0:5
	mov	x1, #0                          ; =0x0
	.loc	0 14 5                          ; cp.cc:14:5
	b	LBB2_20
Ltmp113:
LBB2_17:                                ;   in Loop: Header=BB2_8 Depth=1
	;DEBUG_VALUE: normalize_rows:mean <- $d1
	;DEBUG_VALUE: normalize_rows:a <- $x10
	;DEBUG_VALUE: i <- $x10
	;DEBUG_VALUE: k <- 0
	;DEBUG_VALUE: normalize_rows:len <- 0.000000e+00
	;DEBUG_VALUE: normalize_rows:normalized <- [DW_OP_plus_uconst 8, DW_OP_stack_value] $sp
	;DEBUG_VALUE: normalize_rows:nx <- $w21
	;DEBUG_VALUE: correlate:ny <- $w22
	;DEBUG_VALUE: correlate:nx <- $w21
	;DEBUG_VALUE: correlate:result <- $x19
	dup.2d	v2, v1[0]
	mov	x1, x15
	mov	x2, x13
	mov	x3, x11
Ltmp114:
LBB2_18:                                ;   Parent Loop BB2_8 Depth=1
                                        ; =>  This Inner Loop Header: Depth=2
	;DEBUG_VALUE: normalize_rows:mean <- $d1
	;DEBUG_VALUE: normalize_rows:a <- $x10
	;DEBUG_VALUE: i <- $x10
	;DEBUG_VALUE: k <- 0
	;DEBUG_VALUE: normalize_rows:len <- 0.000000e+00
	;DEBUG_VALUE: normalize_rows:normalized <- [DW_OP_plus_uconst 8, DW_OP_stack_value] $sp
	;DEBUG_VALUE: normalize_rows:nx <- $w21
	;DEBUG_VALUE: correlate:ny <- $w22
	;DEBUG_VALUE: correlate:nx <- $w21
	;DEBUG_VALUE: correlate:result <- $x19
	.loc	0 15 31 is_stmt 1               ; cp.cc:15:31
	ldp	q3, q4, [x2, #-32]
	ldp	q5, q6, [x2], #64
	fcvtl2	v7.2d, v3.4s
	fcvtl	v3.2d, v3.2s
	fcvtl2	v16.2d, v4.4s
	fcvtl	v4.2d, v4.2s
	fcvtl2	v17.2d, v5.4s
	fcvtl	v5.2d, v5.2s
	fcvtl2	v18.2d, v6.4s
	fcvtl	v6.2d, v6.2s
	.loc	0 15 46 is_stmt 0               ; cp.cc:15:46
	fsub.2d	v3, v3, v2
	fsub.2d	v7, v7, v2
	fsub.2d	v4, v4, v2
	fsub.2d	v16, v16, v2
	fsub.2d	v5, v5, v2
	fsub.2d	v17, v17, v2
	fsub.2d	v6, v6, v2
	.loc	0 15 29                         ; cp.cc:15:29
	stp	q3, q7, [x1, #-64]
	stp	q4, q16, [x1, #-32]
	stp	q5, q17, [x1]
	.loc	0 15 46                         ; cp.cc:15:46
	fsub.2d	v3, v18, v2
	.loc	0 15 29                         ; cp.cc:15:29
	stp	q6, q3, [x1, #32]
Ltmp115:
	.loc	0 14 26 is_stmt 1               ; cp.cc:14:26
	add	x1, x1, #128
	subs	x3, x3, #16
	b.ne	LBB2_18
Ltmp116:
; %bb.19:                               ;   in Loop: Header=BB2_8 Depth=1
	;DEBUG_VALUE: normalize_rows:mean <- $d1
	;DEBUG_VALUE: normalize_rows:a <- $x10
	;DEBUG_VALUE: i <- $x10
	;DEBUG_VALUE: k <- 0
	;DEBUG_VALUE: normalize_rows:len <- 0.000000e+00
	;DEBUG_VALUE: normalize_rows:normalized <- [DW_OP_plus_uconst 8, DW_OP_stack_value] $sp
	;DEBUG_VALUE: normalize_rows:nx <- $w21
	;DEBUG_VALUE: correlate:ny <- $w22
	;DEBUG_VALUE: correlate:nx <- $w21
	;DEBUG_VALUE: correlate:result <- $x19
	.loc	0 0 26 is_stmt 0                ; cp.cc:0:26
	mov	x1, x11
	.loc	0 14 5                          ; cp.cc:14:5
	cmp	x11, x9
	b.eq	LBB2_21
Ltmp117:
LBB2_20:                                ;   Parent Loop BB2_8 Depth=1
                                        ; =>  This Inner Loop Header: Depth=2
	;DEBUG_VALUE: normalize_rows:mean <- $d1
	;DEBUG_VALUE: normalize_rows:a <- $x10
	;DEBUG_VALUE: i <- $x10
	;DEBUG_VALUE: normalize_rows:len <- 0.000000e+00
	;DEBUG_VALUE: normalize_rows:normalized <- [DW_OP_plus_uconst 8, DW_OP_stack_value] $sp
	;DEBUG_VALUE: normalize_rows:nx <- $w21
	;DEBUG_VALUE: correlate:ny <- $w22
	;DEBUG_VALUE: correlate:nx <- $w21
	;DEBUG_VALUE: correlate:result <- $x19
	;DEBUG_VALUE: k <- $x1
	.loc	0 15 31 is_stmt 1               ; cp.cc:15:31
	ldr	s2, [x23, x1, lsl #2]
	fcvt	d2, s2
	.loc	0 15 46 is_stmt 0               ; cp.cc:15:46
	fsub	d2, d2, d1
Ltmp118:
	;DEBUG_VALUE: operator[]:__n <- [DW_OP_LLVM_arg 0, DW_OP_LLVM_arg 1, DW_OP_LLVM_arg 2, DW_OP_mul, DW_OP_plus, DW_OP_stack_value] $x1, $x10, $x9
	;DEBUG_VALUE: operator[]:this <- [DW_OP_plus_uconst 8, DW_OP_stack_value] $sp
	.loc	0 15 29                         ; cp.cc:15:29
	str	d2, [x0, x1, lsl #3]
Ltmp119:
	.loc	0 14 26 is_stmt 1               ; cp.cc:14:26
	add	x1, x1, #1
Ltmp120:
	;DEBUG_VALUE: k <- $x1
	.loc	0 14 5 is_stmt 0                ; cp.cc:14:5
	cmp	x9, x1
	b.ne	LBB2_20
Ltmp121:
LBB2_21:                                ;   in Loop: Header=BB2_8 Depth=1
	;DEBUG_VALUE: normalize_rows:mean <- $d1
	;DEBUG_VALUE: normalize_rows:a <- $x10
	;DEBUG_VALUE: i <- $x10
	;DEBUG_VALUE: normalize_rows:len <- 0.000000e+00
	;DEBUG_VALUE: normalize_rows:normalized <- [DW_OP_plus_uconst 8, DW_OP_stack_value] $sp
	;DEBUG_VALUE: normalize_rows:nx <- $w21
	;DEBUG_VALUE: correlate:ny <- $w22
	;DEBUG_VALUE: correlate:nx <- $w21
	;DEBUG_VALUE: correlate:result <- $x19
	.loc	0 0 5                           ; cp.cc:0:5
	mov	x1, #0                          ; =0x0
	movi	d1, #0000000000000000
Ltmp122:
	;DEBUG_VALUE: k <- 0
	;DEBUG_VALUE: normalize_rows:len <- 0.000000e+00
LBB2_22:                                ;   Parent Loop BB2_8 Depth=1
                                        ; =>  This Inner Loop Header: Depth=2
	;DEBUG_VALUE: normalize_rows:a <- $x10
	;DEBUG_VALUE: i <- $x10
	;DEBUG_VALUE: normalize_rows:normalized <- [DW_OP_plus_uconst 8, DW_OP_stack_value] $sp
	;DEBUG_VALUE: normalize_rows:nx <- $w21
	;DEBUG_VALUE: correlate:ny <- $w22
	;DEBUG_VALUE: correlate:nx <- $w21
	;DEBUG_VALUE: correlate:result <- $x19
	;DEBUG_VALUE: normalize_rows:len <- $d1
	;DEBUG_VALUE: k <- [DW_OP_consts 8, DW_OP_div, DW_OP_stack_value] $x1
	;DEBUG_VALUE: operator[]:this <- [DW_OP_plus_uconst 8, DW_OP_stack_value] $sp
	;DEBUG_VALUE: operator[]:__n <- [DW_OP_LLVM_arg 0, DW_OP_consts 8, DW_OP_div, DW_OP_LLVM_arg 1, DW_OP_LLVM_arg 2, DW_OP_mul, DW_OP_plus, DW_OP_stack_value] $x1, $x10, $x9
	.loc	0 18 16 is_stmt 1               ; cp.cc:18:16
	ldr	d2, [x0, x1]
Ltmp123:
	;DEBUG_VALUE: operator[]:__n <- [DW_OP_LLVM_arg 0, DW_OP_consts 8, DW_OP_div, DW_OP_LLVM_arg 1, DW_OP_LLVM_arg 2, DW_OP_mul, DW_OP_plus, DW_OP_stack_value] $x1, $x10, $x9
	;DEBUG_VALUE: operator[]:this <- [DW_OP_plus_uconst 8, DW_OP_stack_value] $sp
	.loc	0 18 13 is_stmt 0               ; cp.cc:18:13
	fmadd	d1, d2, d2, d1
Ltmp124:
	;DEBUG_VALUE: k <- [DW_OP_consts 8, DW_OP_div, DW_OP_consts 1, DW_OP_plus, DW_OP_stack_value] $x1
	;DEBUG_VALUE: normalize_rows:len <- $d1
	.loc	0 17 20 is_stmt 1               ; cp.cc:17:20
	add	x1, x1, #8
Ltmp125:
	.loc	0 17 5 is_stmt 0                ; cp.cc:17:5
	cmp	x16, x1
	b.ne	LBB2_22
Ltmp126:
; %bb.23:                               ;   in Loop: Header=BB2_8 Depth=1
	;DEBUG_VALUE: normalize_rows:len <- $d1
	;DEBUG_VALUE: normalize_rows:a <- $x10
	;DEBUG_VALUE: i <- $x10
	;DEBUG_VALUE: normalize_rows:normalized <- [DW_OP_plus_uconst 8, DW_OP_stack_value] $sp
	;DEBUG_VALUE: normalize_rows:nx <- $w21
	;DEBUG_VALUE: correlate:ny <- $w22
	;DEBUG_VALUE: correlate:nx <- $w21
	;DEBUG_VALUE: correlate:result <- $x19
	.loc	0 20 11 is_stmt 1               ; cp.cc:20:11
	fsqrt	d1, d1
Ltmp127:
	;DEBUG_VALUE: k <- 0
	;DEBUG_VALUE: normalize_rows:len <- $d1
	.loc	0 23 5                          ; cp.cc:23:5
	cmp	w21, #8
	b.hs	LBB2_25
Ltmp128:
; %bb.24:                               ;   in Loop: Header=BB2_8 Depth=1
	;DEBUG_VALUE: k <- 0
	;DEBUG_VALUE: normalize_rows:len <- $d1
	;DEBUG_VALUE: normalize_rows:a <- $x10
	;DEBUG_VALUE: i <- $x10
	;DEBUG_VALUE: normalize_rows:normalized <- [DW_OP_plus_uconst 8, DW_OP_stack_value] $sp
	;DEBUG_VALUE: normalize_rows:nx <- $w21
	;DEBUG_VALUE: correlate:ny <- $w22
	;DEBUG_VALUE: correlate:nx <- $w21
	;DEBUG_VALUE: correlate:result <- $x19
	.loc	0 0 5 is_stmt 0                 ; cp.cc:0:5
	mov	x1, #0                          ; =0x0
	.loc	0 23 5                          ; cp.cc:23:5
	b	LBB2_28
Ltmp129:
LBB2_25:                                ;   in Loop: Header=BB2_8 Depth=1
	;DEBUG_VALUE: k <- 0
	;DEBUG_VALUE: normalize_rows:len <- $d1
	;DEBUG_VALUE: normalize_rows:a <- $x10
	;DEBUG_VALUE: i <- $x10
	;DEBUG_VALUE: normalize_rows:normalized <- [DW_OP_plus_uconst 8, DW_OP_stack_value] $sp
	;DEBUG_VALUE: normalize_rows:nx <- $w21
	;DEBUG_VALUE: correlate:ny <- $w22
	;DEBUG_VALUE: correlate:nx <- $w21
	;DEBUG_VALUE: correlate:result <- $x19
	dup.2d	v2, v1[0]
	mov	x1, x12
	mov	x2, x17
Ltmp130:
LBB2_26:                                ;   Parent Loop BB2_8 Depth=1
                                        ; =>  This Inner Loop Header: Depth=2
	;DEBUG_VALUE: k <- 0
	;DEBUG_VALUE: normalize_rows:len <- $d1
	;DEBUG_VALUE: normalize_rows:a <- $x10
	;DEBUG_VALUE: i <- $x10
	;DEBUG_VALUE: normalize_rows:normalized <- [DW_OP_plus_uconst 8, DW_OP_stack_value] $sp
	;DEBUG_VALUE: normalize_rows:nx <- $w21
	;DEBUG_VALUE: correlate:ny <- $w22
	;DEBUG_VALUE: correlate:nx <- $w21
	;DEBUG_VALUE: correlate:result <- $x19
	.loc	0 24 32 is_stmt 1               ; cp.cc:24:32
	ldp	q3, q4, [x2, #-32]
	ldp	q5, q6, [x2]
	.loc	0 24 52 is_stmt 0               ; cp.cc:24:52
	fdiv.2d	v3, v3, v2
	fdiv.2d	v4, v4, v2
	fdiv.2d	v5, v5, v2
	fdiv.2d	v6, v6, v2
	.loc	0 24 30                         ; cp.cc:24:30
	stp	q3, q4, [x2, #-32]
	stp	q5, q6, [x2], #64
Ltmp131:
	.loc	0 23 26 is_stmt 1               ; cp.cc:23:26
	subs	x1, x1, #8
	b.ne	LBB2_26
Ltmp132:
; %bb.27:                               ;   in Loop: Header=BB2_8 Depth=1
	;DEBUG_VALUE: k <- 0
	;DEBUG_VALUE: normalize_rows:len <- $d1
	;DEBUG_VALUE: normalize_rows:a <- $x10
	;DEBUG_VALUE: i <- $x10
	;DEBUG_VALUE: normalize_rows:normalized <- [DW_OP_plus_uconst 8, DW_OP_stack_value] $sp
	;DEBUG_VALUE: normalize_rows:nx <- $w21
	;DEBUG_VALUE: correlate:ny <- $w22
	;DEBUG_VALUE: correlate:nx <- $w21
	;DEBUG_VALUE: correlate:result <- $x19
	.loc	0 0 26 is_stmt 0                ; cp.cc:0:26
	mov	x1, x12
	.loc	0 23 5                          ; cp.cc:23:5
	cmp	x12, x9
	b.eq	LBB2_7
Ltmp133:
LBB2_28:                                ;   Parent Loop BB2_8 Depth=1
                                        ; =>  This Inner Loop Header: Depth=2
	;DEBUG_VALUE: normalize_rows:len <- $d1
	;DEBUG_VALUE: normalize_rows:a <- $x10
	;DEBUG_VALUE: i <- $x10
	;DEBUG_VALUE: normalize_rows:normalized <- [DW_OP_plus_uconst 8, DW_OP_stack_value] $sp
	;DEBUG_VALUE: normalize_rows:nx <- $w21
	;DEBUG_VALUE: correlate:ny <- $w22
	;DEBUG_VALUE: correlate:nx <- $w21
	;DEBUG_VALUE: correlate:result <- $x19
	;DEBUG_VALUE: k <- $x1
	;DEBUG_VALUE: operator[]:this <- [DW_OP_plus_uconst 8, DW_OP_stack_value] $sp
	;DEBUG_VALUE: operator[]:__n <- [DW_OP_LLVM_arg 0, DW_OP_LLVM_arg 1, DW_OP_LLVM_arg 2, DW_OP_mul, DW_OP_plus, DW_OP_stack_value] $x1, $x10, $x9
	.loc	0 24 32 is_stmt 1               ; cp.cc:24:32
	ldr	d2, [x0, x1, lsl #3]
	.loc	0 24 52 is_stmt 0               ; cp.cc:24:52
	fdiv	d2, d2, d1
Ltmp134:
	;DEBUG_VALUE: operator[]:__n <- [DW_OP_LLVM_arg 0, DW_OP_LLVM_arg 1, DW_OP_LLVM_arg 2, DW_OP_mul, DW_OP_plus, DW_OP_stack_value] $x1, $x10, $x9
	;DEBUG_VALUE: operator[]:this <- [DW_OP_plus_uconst 8, DW_OP_stack_value] $sp
	.loc	0 24 30                         ; cp.cc:24:30
	str	d2, [x0, x1, lsl #3]
Ltmp135:
	.loc	0 23 26 is_stmt 1               ; cp.cc:23:26
	add	x1, x1, #1
Ltmp136:
	;DEBUG_VALUE: k <- $x1
	.loc	0 23 5 is_stmt 0                ; cp.cc:23:5
	cmp	x9, x1
	b.ne	LBB2_28
	b	LBB2_7
Ltmp137:
LBB2_29:
	;DEBUG_VALUE: i <- 0
	;DEBUG_VALUE: correlate:ny <- $w22
	;DEBUG_VALUE: correlate:nx <- $w21
	;DEBUG_VALUE: correlate:data <- $x23
	;DEBUG_VALUE: correlate:result <- $x19
	.loc	0 0 5                           ; cp.cc:0:5
	mov	x10, x22
Ltmp138:
LBB2_30:                                ; =>This Inner Loop Header: Depth=1
	;DEBUG_VALUE: correlate:ny <- $w22
	;DEBUG_VALUE: correlate:nx <- $w21
	;DEBUG_VALUE: correlate:data <- $x23
	;DEBUG_VALUE: correlate:result <- $x19
	;DEBUG_VALUE: i <- [DW_OP_LLVM_arg 0, DW_OP_LLVM_arg 1, DW_OP_minus, DW_OP_consts 18446744073709551615, DW_OP_div, DW_OP_stack_value] $w10, $w22
	;DEBUG_VALUE: normalize_rows:a <- [DW_OP_LLVM_arg 0, DW_OP_LLVM_arg 1, DW_OP_minus, DW_OP_consts 18446744073709551615, DW_OP_div, DW_OP_stack_value] $w10, $w22
	;DEBUG_VALUE: normalize_rows:nx <- $w21
	;DEBUG_VALUE: normalize_rows:data <- undef
	;DEBUG_VALUE: normalize_rows:normalized <- [DW_OP_plus_uconst 8, DW_OP_stack_value] $sp
	;DEBUG_VALUE: normalize_rows:mean <- 0.000000e+00
	;DEBUG_VALUE: normalize_rows:len <- 0.000000e+00
	.loc	0 8 5 is_stmt 1                 ; cp.cc:8:5
	; InlineAsm Start
	; begin mean
	; InlineAsm End
	;DEBUG_VALUE: k <- 0
Ltmp139:
	;DEBUG_VALUE: normalize_rows:mean <- undef
	.loc	0 13 5                          ; cp.cc:13:5
	; InlineAsm Start
	; end mean
	; InlineAsm End
Ltmp140:
	;DEBUG_VALUE: k <- 0
	;DEBUG_VALUE: i <- [DW_OP_LLVM_arg 0, DW_OP_LLVM_arg 1, DW_OP_minus, DW_OP_consts 18446744073709551615, DW_OP_div, DW_OP_consts 1, DW_OP_plus, DW_OP_stack_value] $w10, $w22
	.loc	0 47 20                         ; cp.cc:47:20
	subs	w10, w10, #1
Ltmp141:
	.loc	0 47 5 is_stmt 0                ; cp.cc:47:5
	b.ne	LBB2_30
Ltmp142:
LBB2_31:
	;DEBUG_VALUE: correlate:ny <- $w22
	;DEBUG_VALUE: correlate:nx <- $w21
	;DEBUG_VALUE: correlate:result <- $x19
	;DEBUG_VALUE: i <- 0
	.loc	0 0 5                           ; cp.cc:0:5
	cmp	w21, #0
	b.le	LBB2_44
Ltmp143:
; %bb.32:
	;DEBUG_VALUE: i <- 0
	;DEBUG_VALUE: correlate:ny <- $w22
	;DEBUG_VALUE: correlate:nx <- $w21
	;DEBUG_VALUE: correlate:result <- $x19
	cmp	w21, #8
	b.hs	LBB2_46
Ltmp144:
; %bb.33:
	;DEBUG_VALUE: i <- 0
	;DEBUG_VALUE: correlate:ny <- $w22
	;DEBUG_VALUE: correlate:nx <- $w21
	;DEBUG_VALUE: correlate:result <- $x19
	mov	x10, #0                         ; =0x0
Ltmp145:
	.loc	0 50 5 is_stmt 1                ; cp.cc:50:5
	lsl	x11, x8, #2
	add	x12, x20, #24
	lsl	x13, x9, #3
	movi	d0, #0000000000000000
	mov	w14, #1                         ; =0x1
	b	LBB2_35
Ltmp146:
LBB2_34:                                ;   in Loop: Header=BB2_35 Depth=1
	;DEBUG_VALUE: i <- $x10
	;DEBUG_VALUE: correlate:ny <- $w22
	;DEBUG_VALUE: correlate:nx <- $w21
	.loc	0 50 26 is_stmt 0               ; cp.cc:50:26
	add	x10, x10, #1
Ltmp147:
	;DEBUG_VALUE: i <- $x10
	.loc	0 50 5                          ; cp.cc:50:5
	add	x14, x14, #1
	add	x19, x19, #4
Ltmp148:
	;DEBUG_VALUE: correlate:result <- [DW_OP_LLVM_entry_value 1] $x3
	cmp	x10, x8
	b.eq	LBB2_60
Ltmp149:
LBB2_35:                                ; =>This Loop Header: Depth=1
                                        ;     Child Loop BB2_37 Depth 2
	;DEBUG_VALUE: correlate:ny <- $w22
	;DEBUG_VALUE: correlate:nx <- $w21
	;DEBUG_VALUE: i <- $x10
	;DEBUG_VALUE: j <- 0
	.loc	0 0 5                           ; cp.cc:0:5
	mul	x15, x10, x9
	add	x15, x20, x15, lsl #3
	ldr	d1, [x15]
	mov	x16, x12
	mov	x17, x19
	mov	x0, x14
	b	LBB2_37
Ltmp150:
LBB2_36:                                ;   in Loop: Header=BB2_37 Depth=2
	;DEBUG_VALUE: correlate_rows:nx <- $w21
	;DEBUG_VALUE: correlate_rows:a <- $x10
	;DEBUG_VALUE: i <- $x10
	;DEBUG_VALUE: correlate_rows:normalized <- [DW_OP_plus_uconst 8, DW_OP_stack_value] $sp
	;DEBUG_VALUE: correlate:ny <- $w22
	;DEBUG_VALUE: correlate:nx <- $w21
	.loc	0 34 12 is_stmt 1               ; cp.cc:34:12
	fcvt	s2, d2
Ltmp151:
	.loc	0 52 28                         ; cp.cc:52:28
	str	s2, [x17]
Ltmp152:
	;DEBUG_VALUE: j <- undef
	.loc	0 51 24                         ; cp.cc:51:24
	add	x17, x17, x11
	add	x16, x16, x13
	subs	x0, x0, #1
Ltmp153:
	.loc	0 51 9 is_stmt 0                ; cp.cc:51:9
	b.eq	LBB2_34
Ltmp154:
LBB2_37:                                ;   Parent Loop BB2_35 Depth=1
                                        ; =>  This Inner Loop Header: Depth=2
	;DEBUG_VALUE: i <- $x10
	;DEBUG_VALUE: correlate:ny <- $w22
	;DEBUG_VALUE: correlate:nx <- $w21
	;DEBUG_VALUE: j <- undef
	;DEBUG_VALUE: correlate_rows:a <- $x10
	;DEBUG_VALUE: correlate_rows:b <- undef
	;DEBUG_VALUE: correlate_rows:nx <- $w21
	;DEBUG_VALUE: correlate_rows:normalized <- [DW_OP_plus_uconst 8, DW_OP_stack_value] $sp
	;DEBUG_VALUE: correlate_rows:correlation <- 0.000000e+00
	;DEBUG_VALUE: i <- 0
	;DEBUG_VALUE: operator[]:this <- [DW_OP_plus_uconst 8, DW_OP_stack_value] $sp
	;DEBUG_VALUE: operator[]:__n <- [DW_OP_LLVM_arg 0, DW_OP_LLVM_arg 0, DW_OP_plus, DW_OP_stack_value] undef
	;DEBUG_VALUE: operator[]:this <- [DW_OP_plus_uconst 8, DW_OP_stack_value] $sp
	;DEBUG_VALUE: operator[]:__n <- undef
	.loc	0 32 43 is_stmt 1               ; cp.cc:32:43
	ldur	d2, [x16, #-24]
	.loc	0 32 21 is_stmt 0               ; cp.cc:32:21
	fmadd	d2, d1, d2, d0
Ltmp155:
	;DEBUG_VALUE: i <- 1
	;DEBUG_VALUE: correlate_rows:correlation <- $d2
	.loc	0 31 5 is_stmt 1                ; cp.cc:31:5
	cmp	w21, #1
	b.eq	LBB2_36
Ltmp156:
; %bb.38:                               ;   in Loop: Header=BB2_37 Depth=2
	;DEBUG_VALUE: correlate_rows:correlation <- $d2
	;DEBUG_VALUE: i <- 1
	;DEBUG_VALUE: correlate_rows:nx <- $w21
	;DEBUG_VALUE: correlate_rows:a <- $x10
	;DEBUG_VALUE: i <- $x10
	;DEBUG_VALUE: correlate_rows:normalized <- [DW_OP_plus_uconst 8, DW_OP_stack_value] $sp
	;DEBUG_VALUE: correlate:ny <- $w22
	;DEBUG_VALUE: correlate:nx <- $w21
	;DEBUG_VALUE: correlate_rows:correlation <- $d2
	;DEBUG_VALUE: i <- 1
	;DEBUG_VALUE: operator[]:this <- [DW_OP_plus_uconst 8, DW_OP_stack_value] $sp
	;DEBUG_VALUE: operator[]:__n <- [DW_OP_LLVM_arg 0, DW_OP_LLVM_arg 0, DW_OP_plus, DW_OP_stack_value] undef
	.loc	0 32 24                         ; cp.cc:32:24
	ldr	d3, [x15, #8]
Ltmp157:
	;DEBUG_VALUE: operator[]:__n <- undef
	;DEBUG_VALUE: operator[]:this <- [DW_OP_plus_uconst 8, DW_OP_stack_value] $sp
	.loc	0 32 43 is_stmt 0               ; cp.cc:32:43
	ldur	d4, [x16, #-16]
	.loc	0 32 21                         ; cp.cc:32:21
	fmadd	d2, d3, d4, d2
Ltmp158:
	;DEBUG_VALUE: i <- 2
	;DEBUG_VALUE: correlate_rows:correlation <- $d2
	.loc	0 31 5 is_stmt 1                ; cp.cc:31:5
	cmp	w21, #2
	b.eq	LBB2_36
Ltmp159:
; %bb.39:                               ;   in Loop: Header=BB2_37 Depth=2
	;DEBUG_VALUE: i <- 2
	;DEBUG_VALUE: correlate_rows:correlation <- $d2
	;DEBUG_VALUE: correlate_rows:nx <- $w21
	;DEBUG_VALUE: correlate_rows:a <- $x10
	;DEBUG_VALUE: i <- $x10
	;DEBUG_VALUE: correlate_rows:normalized <- [DW_OP_plus_uconst 8, DW_OP_stack_value] $sp
	;DEBUG_VALUE: correlate:ny <- $w22
	;DEBUG_VALUE: correlate:nx <- $w21
	;DEBUG_VALUE: correlate_rows:correlation <- $d2
	;DEBUG_VALUE: i <- 2
	;DEBUG_VALUE: operator[]:this <- [DW_OP_plus_uconst 8, DW_OP_stack_value] $sp
	;DEBUG_VALUE: operator[]:__n <- [DW_OP_LLVM_arg 0, DW_OP_LLVM_arg 0, DW_OP_plus, DW_OP_stack_value] undef
	.loc	0 32 24                         ; cp.cc:32:24
	ldr	d3, [x15, #16]
Ltmp160:
	;DEBUG_VALUE: operator[]:__n <- undef
	;DEBUG_VALUE: operator[]:this <- [DW_OP_plus_uconst 8, DW_OP_stack_value] $sp
	.loc	0 32 43 is_stmt 0               ; cp.cc:32:43
	ldur	d4, [x16, #-8]
	.loc	0 32 21                         ; cp.cc:32:21
	fmadd	d2, d3, d4, d2
Ltmp161:
	;DEBUG_VALUE: i <- 3
	;DEBUG_VALUE: correlate_rows:correlation <- $d2
	.loc	0 31 5 is_stmt 1                ; cp.cc:31:5
	cmp	w21, #3
	b.eq	LBB2_36
Ltmp162:
; %bb.40:                               ;   in Loop: Header=BB2_37 Depth=2
	;DEBUG_VALUE: i <- 3
	;DEBUG_VALUE: correlate_rows:correlation <- $d2
	;DEBUG_VALUE: correlate_rows:nx <- $w21
	;DEBUG_VALUE: correlate_rows:a <- $x10
	;DEBUG_VALUE: i <- $x10
	;DEBUG_VALUE: correlate_rows:normalized <- [DW_OP_plus_uconst 8, DW_OP_stack_value] $sp
	;DEBUG_VALUE: correlate:ny <- $w22
	;DEBUG_VALUE: correlate:nx <- $w21
	;DEBUG_VALUE: correlate_rows:correlation <- $d2
	;DEBUG_VALUE: i <- 3
	;DEBUG_VALUE: operator[]:this <- [DW_OP_plus_uconst 8, DW_OP_stack_value] $sp
	;DEBUG_VALUE: operator[]:__n <- [DW_OP_LLVM_arg 0, DW_OP_LLVM_arg 0, DW_OP_plus, DW_OP_stack_value] undef
	.loc	0 32 24                         ; cp.cc:32:24
	ldr	d3, [x15, #24]
Ltmp163:
	;DEBUG_VALUE: operator[]:__n <- undef
	;DEBUG_VALUE: operator[]:this <- [DW_OP_plus_uconst 8, DW_OP_stack_value] $sp
	.loc	0 32 43 is_stmt 0               ; cp.cc:32:43
	ldr	d4, [x16]
	.loc	0 32 21                         ; cp.cc:32:21
	fmadd	d2, d3, d4, d2
Ltmp164:
	;DEBUG_VALUE: i <- 4
	;DEBUG_VALUE: correlate_rows:correlation <- $d2
	.loc	0 31 5 is_stmt 1                ; cp.cc:31:5
	cmp	w21, #4
	b.eq	LBB2_36
Ltmp165:
; %bb.41:                               ;   in Loop: Header=BB2_37 Depth=2
	;DEBUG_VALUE: i <- 4
	;DEBUG_VALUE: correlate_rows:correlation <- $d2
	;DEBUG_VALUE: correlate_rows:nx <- $w21
	;DEBUG_VALUE: correlate_rows:a <- $x10
	;DEBUG_VALUE: i <- $x10
	;DEBUG_VALUE: correlate_rows:normalized <- [DW_OP_plus_uconst 8, DW_OP_stack_value] $sp
	;DEBUG_VALUE: correlate:ny <- $w22
	;DEBUG_VALUE: correlate:nx <- $w21
	;DEBUG_VALUE: correlate_rows:correlation <- $d2
	;DEBUG_VALUE: i <- 4
	;DEBUG_VALUE: operator[]:this <- [DW_OP_plus_uconst 8, DW_OP_stack_value] $sp
	;DEBUG_VALUE: operator[]:__n <- [DW_OP_LLVM_arg 0, DW_OP_LLVM_arg 0, DW_OP_plus, DW_OP_stack_value] undef
	.loc	0 32 24                         ; cp.cc:32:24
	ldr	d3, [x15, #32]
Ltmp166:
	;DEBUG_VALUE: operator[]:__n <- undef
	;DEBUG_VALUE: operator[]:this <- [DW_OP_plus_uconst 8, DW_OP_stack_value] $sp
	.loc	0 32 43 is_stmt 0               ; cp.cc:32:43
	ldr	d4, [x16, #8]
	.loc	0 32 21                         ; cp.cc:32:21
	fmadd	d2, d3, d4, d2
Ltmp167:
	;DEBUG_VALUE: i <- 5
	;DEBUG_VALUE: correlate_rows:correlation <- $d2
	.loc	0 31 5 is_stmt 1                ; cp.cc:31:5
	cmp	w21, #5
	b.eq	LBB2_36
Ltmp168:
; %bb.42:                               ;   in Loop: Header=BB2_37 Depth=2
	;DEBUG_VALUE: i <- 5
	;DEBUG_VALUE: correlate_rows:correlation <- $d2
	;DEBUG_VALUE: correlate_rows:nx <- $w21
	;DEBUG_VALUE: correlate_rows:a <- $x10
	;DEBUG_VALUE: i <- $x10
	;DEBUG_VALUE: correlate_rows:normalized <- [DW_OP_plus_uconst 8, DW_OP_stack_value] $sp
	;DEBUG_VALUE: correlate:ny <- $w22
	;DEBUG_VALUE: correlate:nx <- $w21
	;DEBUG_VALUE: correlate_rows:correlation <- $d2
	;DEBUG_VALUE: i <- 5
	;DEBUG_VALUE: operator[]:this <- [DW_OP_plus_uconst 8, DW_OP_stack_value] $sp
	;DEBUG_VALUE: operator[]:__n <- [DW_OP_LLVM_arg 0, DW_OP_LLVM_arg 0, DW_OP_plus, DW_OP_stack_value] undef
	.loc	0 32 24                         ; cp.cc:32:24
	ldr	d3, [x15, #40]
Ltmp169:
	;DEBUG_VALUE: operator[]:__n <- undef
	;DEBUG_VALUE: operator[]:this <- [DW_OP_plus_uconst 8, DW_OP_stack_value] $sp
	.loc	0 32 43 is_stmt 0               ; cp.cc:32:43
	ldr	d4, [x16, #16]
	.loc	0 32 21                         ; cp.cc:32:21
	fmadd	d2, d3, d4, d2
Ltmp170:
	;DEBUG_VALUE: i <- 6
	;DEBUG_VALUE: correlate_rows:correlation <- $d2
	.loc	0 31 5 is_stmt 1                ; cp.cc:31:5
	cmp	w21, #6
	b.eq	LBB2_36
Ltmp171:
; %bb.43:                               ;   in Loop: Header=BB2_37 Depth=2
	;DEBUG_VALUE: i <- 6
	;DEBUG_VALUE: correlate_rows:correlation <- $d2
	;DEBUG_VALUE: correlate_rows:nx <- $w21
	;DEBUG_VALUE: correlate_rows:a <- $x10
	;DEBUG_VALUE: i <- $x10
	;DEBUG_VALUE: correlate_rows:normalized <- [DW_OP_plus_uconst 8, DW_OP_stack_value] $sp
	;DEBUG_VALUE: correlate:ny <- $w22
	;DEBUG_VALUE: correlate:nx <- $w21
	;DEBUG_VALUE: correlate_rows:correlation <- $d2
	;DEBUG_VALUE: i <- 6
	;DEBUG_VALUE: operator[]:this <- [DW_OP_plus_uconst 8, DW_OP_stack_value] $sp
	;DEBUG_VALUE: operator[]:__n <- [DW_OP_LLVM_arg 0, DW_OP_LLVM_arg 0, DW_OP_plus, DW_OP_stack_value] undef
	.loc	0 32 24                         ; cp.cc:32:24
	ldr	d3, [x15, #48]
Ltmp172:
	;DEBUG_VALUE: operator[]:__n <- undef
	;DEBUG_VALUE: operator[]:this <- [DW_OP_plus_uconst 8, DW_OP_stack_value] $sp
	.loc	0 32 43 is_stmt 0               ; cp.cc:32:43
	ldr	d4, [x16, #24]
	.loc	0 32 21                         ; cp.cc:32:21
	fmadd	d2, d3, d4, d2
Ltmp173:
	;DEBUG_VALUE: i <- 7
	.loc	0 0 21                          ; cp.cc:0:21
	b	LBB2_36
Ltmp174:
LBB2_44:
	;DEBUG_VALUE: i <- 0
	;DEBUG_VALUE: correlate:ny <- $w22
	;DEBUG_VALUE: correlate:nx <- $w21
	;DEBUG_VALUE: correlate:result <- $x19
	cmp	w22, #1
	b.ne	LBB2_55
Ltmp175:
; %bb.45:
	;DEBUG_VALUE: i <- 0
	;DEBUG_VALUE: correlate:ny <- $w22
	;DEBUG_VALUE: correlate:nx <- $w21
	;DEBUG_VALUE: correlate:result <- $x19
	;DEBUG_VALUE: i <- 0
	;DEBUG_VALUE: j <- undef
	;DEBUG_VALUE: correlate_rows:a <- 0
	;DEBUG_VALUE: correlate_rows:b <- undef
	;DEBUG_VALUE: correlate_rows:nx <- undef
	;DEBUG_VALUE: correlate_rows:normalized <- [DW_OP_plus_uconst 8, DW_OP_stack_value] $sp
	;DEBUG_VALUE: correlate_rows:correlation <- 0.000000e+00
	;DEBUG_VALUE: i <- 0
	.loc	0 52 28 is_stmt 1               ; cp.cc:52:28
	str	wzr, [x19]
Ltmp176:
	;DEBUG_VALUE: i <- 1
	.loc	0 0 28 is_stmt 0                ; cp.cc:0:28
	b	LBB2_59
Ltmp177:
LBB2_46:
	;DEBUG_VALUE: i <- 0
	;DEBUG_VALUE: correlate:ny <- $w22
	;DEBUG_VALUE: correlate:nx <- $w21
	;DEBUG_VALUE: correlate:result <- $x19
	mov	x10, #0                         ; =0x0
	and	x11, x9, #0x7ffffff8
	.loc	0 50 5 is_stmt 1                ; cp.cc:50:5
	add	x12, x20, #32
	lsl	x13, x9, #3
	sub	x14, x9, x11
	ubfx	x15, x9, #3, #28
	add	x15, x20, x15, lsl #6
	mov	w16, #1                         ; =0x1
	mov	x17, x15
	mov	x0, x12
	b	LBB2_48
Ltmp178:
LBB2_47:                                ;   in Loop: Header=BB2_48 Depth=1
	;DEBUG_VALUE: i <- $x10
	;DEBUG_VALUE: correlate:ny <- $w22
	;DEBUG_VALUE: correlate:nx <- $w21
	;DEBUG_VALUE: correlate:result <- $x19
	.loc	0 50 26 is_stmt 0               ; cp.cc:50:26
	add	x10, x10, #1
Ltmp179:
	;DEBUG_VALUE: i <- $x10
	.loc	0 50 5                          ; cp.cc:50:5
	add	x16, x16, #1
	add	x0, x0, x13
	add	x17, x17, x13
	cmp	x10, x8
	b.eq	LBB2_60
Ltmp180:
LBB2_48:                                ; =>This Loop Header: Depth=1
                                        ;     Child Loop BB2_50 Depth 2
                                        ;       Child Loop BB2_51 Depth 3
                                        ;       Child Loop BB2_54 Depth 3
	;DEBUG_VALUE: correlate:ny <- $w22
	;DEBUG_VALUE: correlate:nx <- $w21
	;DEBUG_VALUE: correlate:result <- $x19
	;DEBUG_VALUE: i <- $x10
	;DEBUG_VALUE: j <- 0
	.loc	0 0 5                           ; cp.cc:0:5
	mov	x1, #0                          ; =0x0
	mov	x2, x15
	mov	x3, x12
Ltmp181:
	.loc	0 51 9 is_stmt 1                ; cp.cc:51:9
	add	x4, x19, x10, lsl #2
	b	LBB2_50
Ltmp182:
LBB2_49:                                ;   in Loop: Header=BB2_50 Depth=2
	;DEBUG_VALUE: j <- $x1
	;DEBUG_VALUE: correlate_rows:a <- $x10
	;DEBUG_VALUE: correlate_rows:b <- $x1
	;DEBUG_VALUE: i <- $x10
	;DEBUG_VALUE: correlate_rows:normalized <- [DW_OP_plus_uconst 8, DW_OP_stack_value] $sp
	;DEBUG_VALUE: correlate:ny <- $w22
	;DEBUG_VALUE: correlate:nx <- $w21
	;DEBUG_VALUE: correlate:result <- $x19
	.loc	0 34 12                         ; cp.cc:34:12
	fcvt	s0, d0
Ltmp183:
	.loc	0 52 23                         ; cp.cc:52:23
	mul	x5, x1, x8
	.loc	0 52 28 is_stmt 0               ; cp.cc:52:28
	str	s0, [x4, x5, lsl #2]
Ltmp184:
	.loc	0 51 30 is_stmt 1               ; cp.cc:51:30
	add	x1, x1, #1
Ltmp185:
	;DEBUG_VALUE: j <- $x1
	.loc	0 51 9 is_stmt 0                ; cp.cc:51:9
	add	x3, x3, x13
	add	x2, x2, x13
	cmp	x1, x16
	b.eq	LBB2_47
Ltmp186:
LBB2_50:                                ;   Parent Loop BB2_48 Depth=1
                                        ; =>  This Loop Header: Depth=2
                                        ;       Child Loop BB2_51 Depth 3
                                        ;       Child Loop BB2_54 Depth 3
	;DEBUG_VALUE: i <- $x10
	;DEBUG_VALUE: correlate:ny <- $w22
	;DEBUG_VALUE: correlate:nx <- $w21
	;DEBUG_VALUE: correlate:result <- $x19
	.loc	0 0 9                           ; cp.cc:0:9
	movi	d0, #0000000000000000
	;DEBUG_VALUE: i <- 0
	;DEBUG_VALUE: correlate_rows:correlation <- 0.000000e+00
	;DEBUG_VALUE: correlate_rows:normalized <- [DW_OP_plus_uconst 8, DW_OP_stack_value] $sp
	;DEBUG_VALUE: correlate_rows:nx <- undef
	;DEBUG_VALUE: correlate_rows:b <- $x1
	;DEBUG_VALUE: correlate_rows:a <- $x10
Ltmp187:
	;DEBUG_VALUE: j <- $x1
	mov	x5, x0
	mov	x6, x3
	mov	x7, x11
Ltmp188:
LBB2_51:                                ;   Parent Loop BB2_48 Depth=1
                                        ;     Parent Loop BB2_50 Depth=2
                                        ; =>    This Inner Loop Header: Depth=3
	;DEBUG_VALUE: j <- $x1
	;DEBUG_VALUE: correlate_rows:a <- $x10
	;DEBUG_VALUE: correlate_rows:b <- $x1
	;DEBUG_VALUE: i <- $x10
	;DEBUG_VALUE: i <- 0
	;DEBUG_VALUE: correlate_rows:correlation <- 0.000000e+00
	;DEBUG_VALUE: correlate_rows:normalized <- [DW_OP_plus_uconst 8, DW_OP_stack_value] $sp
	;DEBUG_VALUE: correlate:ny <- $w22
	;DEBUG_VALUE: correlate:nx <- $w21
	;DEBUG_VALUE: correlate:result <- $x19
	.loc	0 32 24 is_stmt 1               ; cp.cc:32:24
	ldp	q1, q2, [x5, #-32]
	ldp	q3, q4, [x5], #64
	.loc	0 32 43 is_stmt 0               ; cp.cc:32:43
	ldp	q5, q6, [x6, #-32]
	ldp	q7, q16, [x6], #64
	fmul.2d	v1, v1, v5
	mov	d5, v1[1]
	fmul.2d	v2, v2, v6
	mov	d6, v2[1]
	fmul.2d	v3, v3, v7
	mov	d7, v3[1]
	fmul.2d	v4, v4, v16
	mov	d16, v4[1]
	fadd	d0, d0, d1
	fadd	d0, d0, d5
	fadd	d0, d0, d2
	fadd	d0, d0, d6
	fadd	d0, d0, d3
	fadd	d0, d0, d7
	fadd	d0, d0, d4
	fadd	d0, d0, d16
Ltmp189:
	.loc	0 31 26 is_stmt 1               ; cp.cc:31:26
	subs	x7, x7, #8
	b.ne	LBB2_51
Ltmp190:
; %bb.52:                               ;   in Loop: Header=BB2_50 Depth=2
	;DEBUG_VALUE: j <- $x1
	;DEBUG_VALUE: correlate_rows:a <- $x10
	;DEBUG_VALUE: correlate_rows:b <- $x1
	;DEBUG_VALUE: i <- $x10
	;DEBUG_VALUE: i <- 0
	;DEBUG_VALUE: correlate_rows:correlation <- 0.000000e+00
	;DEBUG_VALUE: correlate_rows:normalized <- [DW_OP_plus_uconst 8, DW_OP_stack_value] $sp
	;DEBUG_VALUE: correlate:ny <- $w22
	;DEBUG_VALUE: correlate:nx <- $w21
	;DEBUG_VALUE: correlate:result <- $x19
	.loc	0 31 5 is_stmt 0                ; cp.cc:31:5
	cmp	x9, x11
	b.eq	LBB2_49
Ltmp191:
; %bb.53:                               ;   in Loop: Header=BB2_50 Depth=2
	;DEBUG_VALUE: j <- $x1
	;DEBUG_VALUE: correlate_rows:a <- $x10
	;DEBUG_VALUE: correlate_rows:b <- $x1
	;DEBUG_VALUE: i <- $x10
	;DEBUG_VALUE: i <- 0
	;DEBUG_VALUE: correlate_rows:correlation <- 0.000000e+00
	;DEBUG_VALUE: correlate_rows:normalized <- [DW_OP_plus_uconst 8, DW_OP_stack_value] $sp
	;DEBUG_VALUE: correlate:ny <- $w22
	;DEBUG_VALUE: correlate:nx <- $w21
	;DEBUG_VALUE: correlate:result <- $x19
	.loc	0 0 5                           ; cp.cc:0:5
	mov	x5, x17
	mov	x6, x2
	mov	x7, x14
Ltmp192:
LBB2_54:                                ;   Parent Loop BB2_48 Depth=1
                                        ;     Parent Loop BB2_50 Depth=2
                                        ; =>    This Inner Loop Header: Depth=3
	;DEBUG_VALUE: j <- $x1
	;DEBUG_VALUE: correlate_rows:a <- $x10
	;DEBUG_VALUE: correlate_rows:b <- $x1
	;DEBUG_VALUE: i <- $x10
	;DEBUG_VALUE: correlate_rows:normalized <- [DW_OP_plus_uconst 8, DW_OP_stack_value] $sp
	;DEBUG_VALUE: correlate:ny <- $w22
	;DEBUG_VALUE: correlate:nx <- $w21
	;DEBUG_VALUE: correlate:result <- $x19
	;DEBUG_VALUE: correlate_rows:correlation <- $d0
	;DEBUG_VALUE: i <- [DW_OP_LLVM_arg 0, DW_OP_LLVM_arg 0, DW_OP_LLVM_convert 64 7, DW_OP_consts 18446744073709551608, DW_OP_LLVM_arg 0, DW_OP_LLVM_convert 64 7, DW_OP_consts 8, DW_OP_div, DW_OP_LLVM_convert 28 7, DW_OP_LLVM_convert 64 7, DW_OP_mul, DW_OP_plus, DW_OP_minus, DW_OP_consts 18446744073709551615, DW_OP_div, DW_OP_consts 8, DW_OP_LLVM_arg 0, DW_OP_LLVM_convert 64 7, DW_OP_consts 8, DW_OP_div, DW_OP_LLVM_convert 28 7, DW_OP_LLVM_convert 64 7, DW_OP_mul, DW_OP_plus, DW_OP_stack_value] undef
	;DEBUG_VALUE: operator[]:this <- [DW_OP_plus_uconst 8, DW_OP_stack_value] $sp
	;DEBUG_VALUE: operator[]:__n <- [DW_OP_LLVM_arg 0, DW_OP_LLVM_arg 0, DW_OP_LLVM_convert 64 7, DW_OP_consts 18446744073709551608, DW_OP_LLVM_arg 0, DW_OP_LLVM_convert 64 7, DW_OP_consts 8, DW_OP_div, DW_OP_LLVM_convert 28 7, DW_OP_LLVM_convert 64 7, DW_OP_mul, DW_OP_plus, DW_OP_minus, DW_OP_consts 18446744073709551615, DW_OP_div, DW_OP_consts 8, DW_OP_LLVM_arg 0, DW_OP_LLVM_convert 64 7, DW_OP_consts 8, DW_OP_div, DW_OP_LLVM_convert 28 7, DW_OP_LLVM_convert 64 7, DW_OP_mul, DW_OP_plus, DW_OP_LLVM_arg 0, DW_OP_LLVM_arg 0, DW_OP_LLVM_convert 64 7, DW_OP_consts 18446744073709551608, DW_OP_LLVM_arg 0, DW_OP_LLVM_convert 64 7, DW_OP_consts 8, DW_OP_div, DW_OP_LLVM_convert 28 7, DW_OP_LLVM_convert 64 7, DW_OP_mul, DW_OP_plus, DW_OP_minus, DW_OP_consts 18446744073709551615, DW_OP_div, DW_OP_LLVM_arg 0, DW_OP_LLVM_convert 64 7, DW_OP_mul, DW_OP_plus, DW_OP_stack_value] undef
	.loc	0 32 24 is_stmt 1               ; cp.cc:32:24
	ldr	d1, [x5], #8
Ltmp193:
	;DEBUG_VALUE: operator[]:__n <- [DW_OP_LLVM_arg 0, DW_OP_LLVM_arg 0, DW_OP_LLVM_convert 64 7, DW_OP_consts 18446744073709551608, DW_OP_LLVM_arg 0, DW_OP_LLVM_convert 64 7, DW_OP_consts 8, DW_OP_div, DW_OP_LLVM_convert 28 7, DW_OP_LLVM_convert 64 7, DW_OP_mul, DW_OP_plus, DW_OP_minus, DW_OP_consts 18446744073709551615, DW_OP_div, DW_OP_consts 8, DW_OP_LLVM_arg 0, DW_OP_LLVM_convert 64 7, DW_OP_consts 8, DW_OP_div, DW_OP_LLVM_convert 28 7, DW_OP_LLVM_convert 64 7, DW_OP_mul, DW_OP_plus, DW_OP_LLVM_arg 0, DW_OP_LLVM_arg 0, DW_OP_LLVM_convert 64 7, DW_OP_consts 18446744073709551608, DW_OP_LLVM_arg 0, DW_OP_LLVM_convert 64 7, DW_OP_consts 8, DW_OP_div, DW_OP_LLVM_convert 28 7, DW_OP_LLVM_convert 64 7, DW_OP_mul, DW_OP_plus, DW_OP_minus, DW_OP_consts 18446744073709551615, DW_OP_div, DW_OP_LLVM_arg 0, DW_OP_LLVM_convert 64 7, DW_OP_mul, DW_OP_plus, DW_OP_stack_value] undef
	;DEBUG_VALUE: operator[]:this <- [DW_OP_plus_uconst 8, DW_OP_stack_value] $sp
	.loc	0 32 43 is_stmt 0               ; cp.cc:32:43
	ldr	d2, [x6], #8
	.loc	0 32 21                         ; cp.cc:32:21
	fmadd	d0, d1, d2, d0
Ltmp194:
	;DEBUG_VALUE: i <- [DW_OP_LLVM_arg 0, DW_OP_LLVM_arg 0, DW_OP_LLVM_convert 64 7, DW_OP_consts 18446744073709551608, DW_OP_LLVM_arg 0, DW_OP_LLVM_convert 64 7, DW_OP_consts 8, DW_OP_div, DW_OP_LLVM_convert 28 7, DW_OP_LLVM_convert 64 7, DW_OP_mul, DW_OP_plus, DW_OP_minus, DW_OP_consts 18446744073709551615, DW_OP_div, DW_OP_consts 1, DW_OP_consts 8, DW_OP_LLVM_arg 0, DW_OP_LLVM_convert 64 7, DW_OP_consts 8, DW_OP_div, DW_OP_LLVM_convert 28 7, DW_OP_LLVM_convert 64 7, DW_OP_mul, DW_OP_plus, DW_OP_plus, DW_OP_stack_value] undef
	;DEBUG_VALUE: correlate_rows:correlation <- $d0
	.loc	0 31 20 is_stmt 1               ; cp.cc:31:20
	subs	x7, x7, #1
Ltmp195:
	.loc	0 31 5 is_stmt 0                ; cp.cc:31:5
	b.ne	LBB2_54
	b	LBB2_49
Ltmp196:
LBB2_55:
	;DEBUG_VALUE: i <- 0
	;DEBUG_VALUE: correlate:ny <- $w22
	;DEBUG_VALUE: correlate:nx <- $w21
	;DEBUG_VALUE: correlate:result <- $x19
	.loc	0 0 5                           ; cp.cc:0:5
	mov	x9, #0                          ; =0x0
	.loc	0 50 5 is_stmt 1                ; cp.cc:50:5
	lsl	x10, x8, #2
	mov	w11, #1                         ; =0x1
Ltmp197:
LBB2_56:                                ; =>This Loop Header: Depth=1
                                        ;     Child Loop BB2_57 Depth 2
	;DEBUG_VALUE: correlate:ny <- $w22
	;DEBUG_VALUE: correlate:nx <- $w21
	;DEBUG_VALUE: i <- $x9
	;DEBUG_VALUE: j <- 0
	.loc	0 0 5 is_stmt 0                 ; cp.cc:0:5
	mov	x12, x11
	mov	x13, x19
Ltmp198:
LBB2_57:                                ;   Parent Loop BB2_56 Depth=1
                                        ; =>  This Inner Loop Header: Depth=2
	;DEBUG_VALUE: i <- $x9
	;DEBUG_VALUE: correlate:ny <- $w22
	;DEBUG_VALUE: correlate:nx <- $w21
	;DEBUG_VALUE: j <- [DW_OP_LLVM_arg 0, DW_OP_LLVM_arg 0, DW_OP_minus, DW_OP_consts 4, DW_OP_div, DW_OP_stack_value] undef
	;DEBUG_VALUE: correlate_rows:a <- $x9
	;DEBUG_VALUE: correlate_rows:b <- [DW_OP_LLVM_arg 0, DW_OP_LLVM_arg 0, DW_OP_minus, DW_OP_consts 4, DW_OP_div, DW_OP_stack_value] undef
	;DEBUG_VALUE: correlate_rows:nx <- undef
	;DEBUG_VALUE: correlate_rows:normalized <- [DW_OP_plus_uconst 8, DW_OP_stack_value] $sp
	;DEBUG_VALUE: correlate_rows:correlation <- 0.000000e+00
	;DEBUG_VALUE: i <- 0
	.loc	0 52 28 is_stmt 1               ; cp.cc:52:28
	str	wzr, [x13]
Ltmp199:
	;DEBUG_VALUE: j <- [DW_OP_LLVM_arg 0, DW_OP_LLVM_arg 0, DW_OP_minus, DW_OP_consts 4, DW_OP_div, DW_OP_consts 1, DW_OP_plus, DW_OP_stack_value] undef
	.loc	0 51 24                         ; cp.cc:51:24
	add	x13, x13, x10
	subs	x12, x12, #1
Ltmp200:
	.loc	0 51 9 is_stmt 0                ; cp.cc:51:9
	b.ne	LBB2_57
Ltmp201:
; %bb.58:                               ;   in Loop: Header=BB2_56 Depth=1
	;DEBUG_VALUE: i <- $x9
	;DEBUG_VALUE: correlate:ny <- $w22
	;DEBUG_VALUE: correlate:nx <- $w21
	.loc	0 50 26 is_stmt 1               ; cp.cc:50:26
	add	x9, x9, #1
Ltmp202:
	;DEBUG_VALUE: i <- $x9
	.loc	0 50 5 is_stmt 0                ; cp.cc:50:5
	add	x11, x11, #1
	add	x19, x19, #4
Ltmp203:
	;DEBUG_VALUE: correlate:result <- [DW_OP_LLVM_entry_value 1] $x3
	cmp	x9, x8
	b.ne	LBB2_56
Ltmp204:
LBB2_59:
	;DEBUG_VALUE: correlate:ny <- $w22
	;DEBUG_VALUE: correlate:nx <- $w21
	;DEBUG_VALUE: ~vector:this <- [DW_OP_plus_uconst 8, DW_OP_stack_value] $sp
	;DEBUG_VALUE: ~vector:this <- [DW_OP_plus_uconst 8, DW_OP_stack_value] $sp
	;DEBUG_VALUE: operator():this <- undef
	.loc	1 529 11 is_stmt 1              ; /Library/Developer/CommandLineTools/SDKs/MacOSX.sdk/usr/include/c++/v1/vector:529:11
	cbz	x20, LBB2_61
Ltmp205:
LBB2_60:
	;DEBUG_VALUE: correlate:ny <- $w22
	;DEBUG_VALUE: correlate:nx <- $w21
	;DEBUG_VALUE: __clear:this <- [DW_OP_plus_uconst 8, DW_OP_stack_value] $sp
	;DEBUG_VALUE: __base_destruct_at_end:this <- [DW_OP_plus_uconst 8, DW_OP_stack_value] $sp
	;DEBUG_VALUE: __base_destruct_at_end:__new_last <- $x20
	;DEBUG_VALUE: __base_destruct_at_end:__soon_to_be_end <- undef
	;DEBUG_VALUE: deallocate:__a <- [DW_OP_plus_uconst 8, DW_OP_plus_uconst 16, DW_OP_stack_value] $sp
	;DEBUG_VALUE: deallocate:__p <- $x20
	;DEBUG_VALUE: deallocate:__n <- undef
	;DEBUG_VALUE: deallocate:this <- [DW_OP_plus_uconst 8, DW_OP_plus_uconst 16, DW_OP_stack_value] $sp
	;DEBUG_VALUE: deallocate:__p <- $x20
	;DEBUG_VALUE: deallocate:__n <- undef
	;DEBUG_VALUE: __libcpp_deallocate:__ptr <- $x20
	;DEBUG_VALUE: __libcpp_deallocate:__size <- undef
	;DEBUG_VALUE: __libcpp_deallocate:__align <- 8
	;DEBUG_VALUE: __do_deallocate_handle_size<>:__ptr <- $x20
	;DEBUG_VALUE: __do_deallocate_handle_size<>:__size <- undef
	;DEBUG_VALUE: __libcpp_operator_delete<void *>:__args <- $x20
	.loc	18 306 3                        ; /Library/Developer/CommandLineTools/SDKs/MacOSX.sdk/usr/include/c++/v1/new:306:3
	mov	x0, x20
	.loc	18 306 3 epilogue_begin is_stmt 0 ; /Library/Developer/CommandLineTools/SDKs/MacOSX.sdk/usr/include/c++/v1/new:306:3
	ldp	x29, x30, [sp, #80]             ; 16-byte Folded Reload
	ldp	x20, x19, [sp, #64]             ; 16-byte Folded Reload
Ltmp206:
	ldp	x22, x21, [sp, #48]             ; 16-byte Folded Reload
Ltmp207:
	ldp	x24, x23, [sp, #32]             ; 16-byte Folded Reload
	add	sp, sp, #96
Ltmp208:
	b	__ZdlPv
Ltmp209:
LBB2_61:
	;DEBUG_VALUE: correlate:ny <- $w22
	;DEBUG_VALUE: correlate:nx <- $w21
	.loc	0 55 1 epilogue_begin is_stmt 1 ; cp.cc:55:1
	ldp	x29, x30, [sp, #80]             ; 16-byte Folded Reload
	ldp	x20, x19, [sp, #64]             ; 16-byte Folded Reload
	ldp	x22, x21, [sp, #48]             ; 16-byte Folded Reload
Ltmp210:
	ldp	x24, x23, [sp, #32]             ; 16-byte Folded Reload
	add	sp, sp, #96
	ret
LBB2_62:
Ltmp211:
	;DEBUG_VALUE: __vallocate:this <- [DW_OP_plus_uconst 8, DW_OP_stack_value] $sp
	;DEBUG_VALUE: __guard <- [DW_OP_plus_uconst 8, DW_OP_stack_value, DW_OP_LLVM_fragment 0 64] $sp
	;DEBUG_VALUE: __guard <- [DW_OP_LLVM_fragment 64 8] 0
	;DEBUG_VALUE: vector:this <- [DW_OP_plus_uconst 8, DW_OP_stack_value] $sp
	;DEBUG_VALUE: vector:__n <- [DW_OP_LLVM_convert 32 5, DW_OP_LLVM_convert 64 5, DW_OP_stack_value] $w8
	;DEBUG_VALUE: vector:this <- [DW_OP_plus_uconst 8, DW_OP_stack_value] $sp
	;DEBUG_VALUE: vector:__n <- [DW_OP_LLVM_convert 32 5, DW_OP_LLVM_convert 64 5, DW_OP_stack_value] $w8
	;DEBUG_VALUE: correlate:ny <- $w22
	;DEBUG_VALUE: correlate:nx <- $w21
	;DEBUG_VALUE: correlate:data <- $x23
	;DEBUG_VALUE: correlate:result <- $x19
Ltmp2:
	.loc	1 780 7                         ; /Library/Developer/CommandLineTools/SDKs/MacOSX.sdk/usr/include/c++/v1/vector:780:7
	add	x0, sp, #8
	bl	__ZNKSt3__16vectorIdNS_9allocatorIdEEE20__throw_length_errorB8ne190102Ev
Ltmp212:
Ltmp3:
; %bb.63:
	;DEBUG_VALUE: __vallocate:this <- [DW_OP_plus_uconst 8, DW_OP_stack_value] $sp
	;DEBUG_VALUE: __guard <- [DW_OP_plus_uconst 8, DW_OP_stack_value, DW_OP_LLVM_fragment 0 64] $sp
	;DEBUG_VALUE: __guard <- [DW_OP_LLVM_fragment 64 8] 0
	;DEBUG_VALUE: vector:this <- [DW_OP_plus_uconst 8, DW_OP_stack_value] $sp
	;DEBUG_VALUE: vector:this <- [DW_OP_plus_uconst 8, DW_OP_stack_value] $sp
	;DEBUG_VALUE: correlate:ny <- $w22
	;DEBUG_VALUE: correlate:nx <- $w21
	;DEBUG_VALUE: correlate:data <- $x23
	;DEBUG_VALUE: correlate:result <- $x19
	brk	#0x1
Ltmp213:
LBB2_64:
	;DEBUG_VALUE: vector:this <- [DW_OP_plus_uconst 8, DW_OP_stack_value] $sp
	;DEBUG_VALUE: vector:this <- [DW_OP_plus_uconst 8, DW_OP_stack_value] $sp
	;DEBUG_VALUE: correlate:ny <- $w22
	;DEBUG_VALUE: correlate:nx <- $w21
	;DEBUG_VALUE: correlate:data <- $x23
	;DEBUG_VALUE: correlate:result <- $x19
Ltmp4:
	.loc	1 0 7 is_stmt 0                 ; /Library/Developer/CommandLineTools/SDKs/MacOSX.sdk/usr/include/c++/v1/vector:0:7
	mov	x19, x0
Ltmp214:
	;DEBUG_VALUE: correlate:result <- [DW_OP_LLVM_entry_value 1] $x3
	;DEBUG_VALUE: ~__exception_guard_exceptions:this <- undef
	;DEBUG_VALUE: ~__exception_guard_exceptions:this <- undef
	;DEBUG_VALUE: operator():this <- undef
	.loc	1 529 18 is_stmt 1              ; /Library/Developer/CommandLineTools/SDKs/MacOSX.sdk/usr/include/c++/v1/vector:529:18
	ldr	x0, [sp, #8]
Ltmp215:
	.loc	1 529 11 is_stmt 0              ; /Library/Developer/CommandLineTools/SDKs/MacOSX.sdk/usr/include/c++/v1/vector:529:11
	cbz	x0, LBB2_66
Ltmp216:
; %bb.65:
	;DEBUG_VALUE: correlate:result <- [DW_OP_LLVM_entry_value 1] $x3
	;DEBUG_VALUE: vector:this <- [DW_OP_plus_uconst 8, DW_OP_stack_value] $sp
	;DEBUG_VALUE: vector:this <- [DW_OP_plus_uconst 8, DW_OP_stack_value] $sp
	;DEBUG_VALUE: correlate:ny <- $w22
	;DEBUG_VALUE: correlate:nx <- $w21
	;DEBUG_VALUE: correlate:data <- $x23
	;DEBUG_VALUE: __clear:this <- [DW_OP_plus_uconst 8, DW_OP_stack_value] $sp
	;DEBUG_VALUE: __base_destruct_at_end:this <- [DW_OP_plus_uconst 8, DW_OP_stack_value] $sp
	;DEBUG_VALUE: __base_destruct_at_end:__new_last <- $x0
	;DEBUG_VALUE: __base_destruct_at_end:__soon_to_be_end <- undef
	.loc	1 986 18 is_stmt 1              ; /Library/Developer/CommandLineTools/SDKs/MacOSX.sdk/usr/include/c++/v1/vector:986:18
	str	x0, [sp, #16]
Ltmp217:
	;DEBUG_VALUE: __libcpp_operator_delete<void *>:__args <- $x0
	;DEBUG_VALUE: __do_deallocate_handle_size<>:__size <- undef
	;DEBUG_VALUE: __do_deallocate_handle_size<>:__ptr <- $x0
	;DEBUG_VALUE: __libcpp_deallocate:__align <- 8
	;DEBUG_VALUE: __libcpp_deallocate:__size <- undef
	;DEBUG_VALUE: __libcpp_deallocate:__ptr <- $x0
	;DEBUG_VALUE: deallocate:__n <- undef
	;DEBUG_VALUE: deallocate:__p <- $x0
	;DEBUG_VALUE: deallocate:this <- [DW_OP_plus_uconst 8, DW_OP_plus_uconst 16, DW_OP_stack_value] $sp
	;DEBUG_VALUE: deallocate:__n <- undef
	;DEBUG_VALUE: deallocate:__p <- $x0
	;DEBUG_VALUE: deallocate:__a <- [DW_OP_plus_uconst 8, DW_OP_plus_uconst 16, DW_OP_stack_value] $sp
	.loc	18 306 3                        ; /Library/Developer/CommandLineTools/SDKs/MacOSX.sdk/usr/include/c++/v1/new:306:3
	bl	__ZdlPv
Ltmp218:
LBB2_66:
	;DEBUG_VALUE: correlate:result <- [DW_OP_LLVM_entry_value 1] $x3
	;DEBUG_VALUE: vector:this <- [DW_OP_plus_uconst 8, DW_OP_stack_value] $sp
	;DEBUG_VALUE: vector:this <- [DW_OP_plus_uconst 8, DW_OP_stack_value] $sp
	;DEBUG_VALUE: correlate:ny <- $w22
	;DEBUG_VALUE: correlate:nx <- $w21
	;DEBUG_VALUE: correlate:data <- $x23
	.loc	18 0 3 is_stmt 0                ; /Library/Developer/CommandLineTools/SDKs/MacOSX.sdk/usr/include/c++/v1/new:0:3
	mov	x0, x19
	bl	__Unwind_Resume
Ltmp219:
Lfunc_end2:
	.cfi_endproc
	.file	19 "/Library/Developer/CommandLineTools/SDKs/MacOSX.sdk/usr/include/c++/v1/__memory" "allocate_at_least.h"
	.section	__TEXT,__gcc_except_tab
	.p2align	2, 0x0
GCC_except_table2:
Lexception0:
	.byte	255                             ; @LPStart Encoding = omit
	.byte	255                             ; @TType Encoding = omit
	.byte	1                               ; Call site Encoding = uleb128
	.uleb128 Lcst_end0-Lcst_begin0
Lcst_begin0:
	.uleb128 Ltmp0-Lfunc_begin2             ; >> Call Site 1 <<
	.uleb128 Ltmp1-Ltmp0                    ;   Call between Ltmp0 and Ltmp1
	.uleb128 Ltmp4-Lfunc_begin2             ;     jumps to Ltmp4
	.byte	0                               ;   On action: cleanup
	.uleb128 Ltmp1-Lfunc_begin2             ; >> Call Site 2 <<
	.uleb128 Ltmp2-Ltmp1                    ;   Call between Ltmp1 and Ltmp2
	.byte	0                               ;     has no landing pad
	.byte	0                               ;   On action: cleanup
	.uleb128 Ltmp2-Lfunc_begin2             ; >> Call Site 3 <<
	.uleb128 Ltmp3-Ltmp2                    ;   Call between Ltmp2 and Ltmp3
	.uleb128 Ltmp4-Lfunc_begin2             ;     jumps to Ltmp4
	.byte	0                               ;   On action: cleanup
	.uleb128 Ltmp3-Lfunc_begin2             ; >> Call Site 4 <<
	.uleb128 Lfunc_end2-Ltmp3               ;   Call between Ltmp3 and Lfunc_end2
	.byte	0                               ;     has no landing pad
	.byte	0                               ;   On action: cleanup
Lcst_end0:
	.p2align	2, 0x0
                                        ; -- End function
	.section	__TEXT,__text,regular,pure_instructions
	.private_extern	__ZNKSt3__16vectorIdNS_9allocatorIdEEE20__throw_length_errorB8ne190102Ev ; -- Begin function _ZNKSt3__16vectorIdNS_9allocatorIdEEE20__throw_length_errorB8ne190102Ev
	.globl	__ZNKSt3__16vectorIdNS_9allocatorIdEEE20__throw_length_errorB8ne190102Ev
	.weak_def_can_be_hidden	__ZNKSt3__16vectorIdNS_9allocatorIdEEE20__throw_length_errorB8ne190102Ev
	.p2align	2
__ZNKSt3__16vectorIdNS_9allocatorIdEEE20__throw_length_errorB8ne190102Ev: ; @_ZNKSt3__16vectorIdNS_9allocatorIdEEE20__throw_length_errorB8ne190102Ev
Lfunc_begin3:
	.loc	1 999 0 is_stmt 1               ; /Library/Developer/CommandLineTools/SDKs/MacOSX.sdk/usr/include/c++/v1/vector:999:0
	.cfi_startproc
; %bb.0:
	;DEBUG_VALUE: __throw_length_error:this <- $x0
	stp	x29, x30, [sp, #-16]!           ; 16-byte Folded Spill
	mov	x29, sp
	.cfi_def_cfa w29, 16
	.cfi_offset w30, -8
	.cfi_offset w29, -16
Ltmp220:
	.loc	1 999 78 prologue_end           ; /Library/Developer/CommandLineTools/SDKs/MacOSX.sdk/usr/include/c++/v1/vector:999:78
Lloh0:
	adrp	x0, l_.str@PAGE
Ltmp221:
	;DEBUG_VALUE: __throw_length_error:this <- [DW_OP_LLVM_entry_value 1] $x0
Lloh1:
	add	x0, x0, l_.str@PAGEOFF
	bl	__ZNSt3__120__throw_length_errorB8ne190102EPKc
Ltmp222:
	.loh AdrpAdd	Lloh0, Lloh1
Lfunc_end3:
	.cfi_endproc
                                        ; -- End function
	.private_extern	__ZNSt3__120__throw_length_errorB8ne190102EPKc ; -- Begin function _ZNSt3__120__throw_length_errorB8ne190102EPKc
	.globl	__ZNSt3__120__throw_length_errorB8ne190102EPKc
	.weak_def_can_be_hidden	__ZNSt3__120__throw_length_errorB8ne190102EPKc
	.p2align	2
__ZNSt3__120__throw_length_errorB8ne190102EPKc: ; @_ZNSt3__120__throw_length_errorB8ne190102EPKc
Lfunc_begin4:
	.loc	12 239 0                        ; /Library/Developer/CommandLineTools/SDKs/MacOSX.sdk/usr/include/c++/v1/stdexcept:239:0
	.cfi_startproc
	.cfi_personality 155, ___gxx_personality_v0
	.cfi_lsda 16, Lexception1
; %bb.0:
	;DEBUG_VALUE: __throw_length_error:__msg <- $x0
	stp	x20, x19, [sp, #-32]!           ; 16-byte Folded Spill
	stp	x29, x30, [sp, #16]             ; 16-byte Folded Spill
	add	x29, sp, #16
	.cfi_def_cfa w29, 16
	.cfi_offset w30, -8
	.cfi_offset w29, -16
	.cfi_offset w19, -24
	.cfi_offset w20, -32
	mov	x20, x0
Ltmp223:
	;DEBUG_VALUE: __throw_length_error:__msg <- $x20
	.loc	12 241 3 prologue_end           ; /Library/Developer/CommandLineTools/SDKs/MacOSX.sdk/usr/include/c++/v1/stdexcept:241:3
	mov	w0, #16                         ; =0x10
	bl	___cxa_allocate_exception
Ltmp224:
	mov	x19, x0
Ltmp5:
	.loc	12 241 9 is_stmt 0              ; /Library/Developer/CommandLineTools/SDKs/MacOSX.sdk/usr/include/c++/v1/stdexcept:241:9
	mov	x1, x20
Ltmp225:
	;DEBUG_VALUE: __throw_length_error:__msg <- $x1
	bl	__ZNSt12length_errorC1B8ne190102EPKc
Ltmp226:
Ltmp6:
; %bb.1:
	.loc	12 241 3                        ; /Library/Developer/CommandLineTools/SDKs/MacOSX.sdk/usr/include/c++/v1/stdexcept:241:3
Lloh2:
	adrp	x1, __ZTISt12length_error@GOTPAGE
Lloh3:
	ldr	x1, [x1, __ZTISt12length_error@GOTPAGEOFF]
Lloh4:
	adrp	x2, __ZNSt12length_errorD1Ev@GOTPAGE
Lloh5:
	ldr	x2, [x2, __ZNSt12length_errorD1Ev@GOTPAGEOFF]
	mov	x0, x19
	bl	___cxa_throw
Ltmp227:
LBB4_2:
Ltmp7:
	.loc	12 0 3                          ; /Library/Developer/CommandLineTools/SDKs/MacOSX.sdk/usr/include/c++/v1/stdexcept:0:3
	mov	x20, x0
	.loc	12 241 3                        ; /Library/Developer/CommandLineTools/SDKs/MacOSX.sdk/usr/include/c++/v1/stdexcept:241:3
	mov	x0, x19
	bl	___cxa_free_exception
Ltmp228:
	.loc	12 0 3                          ; /Library/Developer/CommandLineTools/SDKs/MacOSX.sdk/usr/include/c++/v1/stdexcept:0:3
	mov	x0, x20
	bl	__Unwind_Resume
Ltmp229:
	.loh AdrpLdrGot	Lloh4, Lloh5
	.loh AdrpLdrGot	Lloh2, Lloh3
Lfunc_end4:
	.cfi_endproc
	.section	__TEXT,__gcc_except_tab
	.p2align	2, 0x0
GCC_except_table4:
Lexception1:
	.byte	255                             ; @LPStart Encoding = omit
	.byte	255                             ; @TType Encoding = omit
	.byte	1                               ; Call site Encoding = uleb128
	.uleb128 Lcst_end1-Lcst_begin1
Lcst_begin1:
	.uleb128 Lfunc_begin4-Lfunc_begin4      ; >> Call Site 1 <<
	.uleb128 Ltmp5-Lfunc_begin4             ;   Call between Lfunc_begin4 and Ltmp5
	.byte	0                               ;     has no landing pad
	.byte	0                               ;   On action: cleanup
	.uleb128 Ltmp5-Lfunc_begin4             ; >> Call Site 2 <<
	.uleb128 Ltmp6-Ltmp5                    ;   Call between Ltmp5 and Ltmp6
	.uleb128 Ltmp7-Lfunc_begin4             ;     jumps to Ltmp7
	.byte	0                               ;   On action: cleanup
	.uleb128 Ltmp6-Lfunc_begin4             ; >> Call Site 3 <<
	.uleb128 Lfunc_end4-Ltmp6               ;   Call between Ltmp6 and Lfunc_end4
	.byte	0                               ;     has no landing pad
	.byte	0                               ;   On action: cleanup
Lcst_end1:
	.p2align	2, 0x0
                                        ; -- End function
	.section	__TEXT,__text,regular,pure_instructions
	.private_extern	__ZNSt12length_errorC1B8ne190102EPKc ; -- Begin function _ZNSt12length_errorC1B8ne190102EPKc
	.globl	__ZNSt12length_errorC1B8ne190102EPKc
	.weak_def_can_be_hidden	__ZNSt12length_errorC1B8ne190102EPKc
	.p2align	2
__ZNSt12length_errorC1B8ne190102EPKc:   ; @_ZNSt12length_errorC1B8ne190102EPKc
Lfunc_begin5:
	.loc	12 152 0 is_stmt 1              ; /Library/Developer/CommandLineTools/SDKs/MacOSX.sdk/usr/include/c++/v1/stdexcept:152:0
	.cfi_startproc
; %bb.0:
	;DEBUG_VALUE: length_error:this <- $x0
	;DEBUG_VALUE: length_error:__s <- $x1
	;DEBUG_VALUE: length_error:this <- $x0
	;DEBUG_VALUE: length_error:__s <- $x1
	stp	x29, x30, [sp, #-16]!           ; 16-byte Folded Spill
	mov	x29, sp
	.cfi_def_cfa w29, 16
	.cfi_offset w30, -8
	.cfi_offset w29, -16
Ltmp230:
	.loc	12 152 66 prologue_end          ; /Library/Developer/CommandLineTools/SDKs/MacOSX.sdk/usr/include/c++/v1/stdexcept:152:66
	bl	__ZNSt11logic_errorC2EPKc
Ltmp231:
	;DEBUG_VALUE: length_error:__s <- [DW_OP_LLVM_entry_value 1] $x1
	.loc	12 152 83 is_stmt 0             ; /Library/Developer/CommandLineTools/SDKs/MacOSX.sdk/usr/include/c++/v1/stdexcept:152:83
Lloh6:
	adrp	x8, __ZTVSt12length_error@GOTPAGE
Lloh7:
	ldr	x8, [x8, __ZTVSt12length_error@GOTPAGEOFF]
	add	x8, x8, #16
	str	x8, [x0]
Ltmp232:
	.loc	12 152 84 epilogue_begin        ; /Library/Developer/CommandLineTools/SDKs/MacOSX.sdk/usr/include/c++/v1/stdexcept:152:84
	ldp	x29, x30, [sp], #16             ; 16-byte Folded Reload
	ret
Ltmp233:
	.loh AdrpLdrGot	Lloh6, Lloh7
Lfunc_end5:
	.cfi_endproc
                                        ; -- End function
	.section	__TEXT,__cstring,cstring_literals
l_.str:                                 ; @.str
	.asciz	"vector"

	.file	20 "/Library/Developer/CommandLineTools/SDKs/MacOSX.sdk/usr/include/c++/v1/__cstddef" "size_t.h"
	.file	21 "/Library/Developer/CommandLineTools/usr/lib/clang/17/include" "__stddef_max_align_t.h" md5 0x3c0a2f19d136d39aa835c737c7105def
	.file	22 "/Library/Developer/CommandLineTools/SDKs/MacOSX.sdk/usr/include/c++/v1/__cstddef" "max_align_t.h"
	.file	23 "/Library/Developer/CommandLineTools/SDKs/MacOSX.sdk/usr/include/c++/v1" "stddef.h"
	.file	24 "/Library/Developer/CommandLineTools/SDKs/MacOSX.sdk/usr/include/c++/v1/__cstddef" "nullptr_t.h"
	.file	25 "/Library/Developer/CommandLineTools/usr/lib/clang/17/include" "__stddef_ptrdiff_t.h" md5 0x21e0c40f3315797d915cc7ea60040a98
	.file	26 "/Library/Developer/CommandLineTools/SDKs/MacOSX.sdk/usr/include/c++/v1/__cstddef" "ptrdiff_t.h"
	.file	27 "/Library/Developer/CommandLineTools/SDKs/MacOSX.sdk/usr/include/sys/_types" "_int8_t.h" md5 0x5052dfe782b50fed2355b8f61a9e4fa9
	.file	28 "/Library/Developer/CommandLineTools/SDKs/MacOSX.sdk/usr/include/c++/v1" "cstdint"
	.file	29 "/Library/Developer/CommandLineTools/SDKs/MacOSX.sdk/usr/include/sys/_types" "_int16_t.h" md5 0x47ed3c3ac6f65bfec021ca2b7be18e7e
	.file	30 "/Library/Developer/CommandLineTools/SDKs/MacOSX.sdk/usr/include/sys/_types" "_int32_t.h" md5 0xd23e8406e80ee79983f28509c741fa17
	.file	31 "/Library/Developer/CommandLineTools/SDKs/MacOSX.sdk/usr/include/sys/_types" "_int64_t.h" md5 0xe6d85c1a9e23dbf7518ce3b162aac800
	.file	32 "/Library/Developer/CommandLineTools/SDKs/MacOSX.sdk/usr/include/_types" "_uint8_t.h" md5 0x8b64ccf8c67b8c006b07b8daf1b49be5
	.file	33 "/Library/Developer/CommandLineTools/SDKs/MacOSX.sdk/usr/include/_types" "_uint16_t.h" md5 0xf0aa926da906b10566dd3171bf347ab7
	.file	34 "/Library/Developer/CommandLineTools/SDKs/MacOSX.sdk/usr/include/_types" "_uint32_t.h" md5 0x0254eb80c6b9719ac45c3c1cf872109b
	.file	35 "/Library/Developer/CommandLineTools/SDKs/MacOSX.sdk/usr/include/_types" "_uint64_t.h" md5 0x77fc5e91653260959605f129691cf9b1
	.file	36 "/Library/Developer/CommandLineTools/SDKs/MacOSX.sdk/usr/include" "stdint.h" md5 0x042ceedaf4137a8aaa272d0b27434016
	.file	37 "/Library/Developer/CommandLineTools/SDKs/MacOSX.sdk/usr/include/arm" "_types.h" md5 0xb270144f57ae258d0ce80b8f87be068c
	.file	38 "/Library/Developer/CommandLineTools/SDKs/MacOSX.sdk/usr/include/sys/_types" "_intptr_t.h" md5 0xe478ba47270923b1cca6659f19f02db1
	.file	39 "/Library/Developer/CommandLineTools/SDKs/MacOSX.sdk/usr/include/sys/_types" "_uintptr_t.h" md5 0xe70ae655dd1b9d4ae0b1dcc073f5b7e4
	.file	40 "/Library/Developer/CommandLineTools/SDKs/MacOSX.sdk/usr/include/_types" "_intmax_t.h" md5 0xe37b9240f30f486478152ef3989b1545
	.file	41 "/Library/Developer/CommandLineTools/SDKs/MacOSX.sdk/usr/include/_types" "_uintmax_t.h" md5 0x8217a3fbb207d8e87ca5318c313e81c2
	.file	42 "/Library/Developer/CommandLineTools/SDKs/MacOSX.sdk/usr/include" "_stdlib.h" md5 0x17a3e5580239ce2f2af260c9c943ad9b
	.file	43 "/Library/Developer/CommandLineTools/SDKs/MacOSX.sdk/usr/include/c++/v1" "cstdlib"
	.file	44 "/Library/Developer/CommandLineTools/SDKs/MacOSX.sdk/usr/include/malloc" "_malloc.h" md5 0x169c9ed8662627a4a4d92e321cfa866c
	.file	45 "/Library/Developer/CommandLineTools/SDKs/MacOSX.sdk/usr/include" "_abort.h" md5 0xb8994a53d49770cf67adab87821b3fcb
	.file	46 "/Library/Developer/CommandLineTools/SDKs/MacOSX.sdk/usr/include/c++/v1" "stdlib.h"
	.file	47 "/Library/Developer/CommandLineTools/SDKs/MacOSX.sdk/usr/include" "_ctype.h" md5 0xb10215117a277691ffc4168ac4505796
	.file	48 "/Library/Developer/CommandLineTools/SDKs/MacOSX.sdk/usr/include/c++/v1" "cctype"
	.file	49 "/Library/Developer/CommandLineTools/SDKs/MacOSX.sdk/usr/include/sys/_types" "_wint_t.h" md5 0x6dfd3a3d5009054224653c03b2c2b6ac
	.file	50 "/Library/Developer/CommandLineTools/SDKs/MacOSX.sdk/usr/include/c++/v1" "cwctype"
	.file	51 "/Library/Developer/CommandLineTools/SDKs/MacOSX.sdk/usr/include" "_types.h" md5 0xc789da493a5b476a3618b20a8fcff3c3
	.file	52 "/Library/Developer/CommandLineTools/SDKs/MacOSX.sdk/usr/include/_types" "_wctrans_t.h" md5 0xe70040c8494301cc74e19df26f4c1d76
	.file	53 "/Library/Developer/CommandLineTools/SDKs/MacOSX.sdk/usr/include/_types" "_wctype_t.h" md5 0x8d1720b82a490c742e6a297f971be2a2
	.file	54 "/Library/Developer/CommandLineTools/SDKs/MacOSX.sdk/usr/include" "___wctype.h" md5 0xd5a8bf0b4062c20bda4d49376e5b44d9
	.file	55 "/Library/Developer/CommandLineTools/SDKs/MacOSX.sdk/usr/include" "_wctype.h" md5 0x6bc93063cb32b00d3df790305c546a93
	.file	56 "/Library/Developer/CommandLineTools/SDKs/MacOSX.sdk/usr/include/sys/_types" "_mbstate_t.h" md5 0x8f920c8f4b68eb07504db5a6777c5466
	.file	57 "/Library/Developer/CommandLineTools/SDKs/MacOSX.sdk/usr/include/c++/v1" "cwchar"
	.file	58 "/Library/Developer/CommandLineTools/SDKs/MacOSX.sdk/usr/include" "_time.h" md5 0xe65eafd533c28a52a9094e430476b03e
	.file	59 "/Library/Developer/CommandLineTools/SDKs/MacOSX.sdk/usr/include" "_stdio.h" md5 0xd91ebd7d161d9196cc100822ef0e5cdf
	.file	60 "/Library/Developer/CommandLineTools/SDKs/MacOSX.sdk/usr/include/sys" "_types.h" md5 0xaf82ff6119a9fa80fad635d276556d46
	.file	61 "/Library/Developer/CommandLineTools/SDKs/MacOSX.sdk/usr/include" "_wchar.h" md5 0xc0db33314388059ce7a1663adf1bfda0
	.file	62 "/Library/Developer/CommandLineTools/SDKs/MacOSX.sdk/usr/include/c++/v1" "wchar.h"
	.file	63 "/Library/Developer/CommandLineTools/SDKs/MacOSX.sdk/usr/include" "_string.h" md5 0xc67be38c725261ca8572072ee1574b87
	.file	64 "/Library/Developer/CommandLineTools/SDKs/MacOSX.sdk/usr/include/c++/v1" "cstring"
	.file	65 "/Library/Developer/CommandLineTools/SDKs/MacOSX.sdk/usr/include/c++/v1" "string.h"
	.file	66 "/Library/Developer/CommandLineTools/SDKs/MacOSX.sdk/usr/include/c++/v1" "__std_mbstate_t.h"
	.file	67 "/Library/Developer/CommandLineTools/SDKs/MacOSX.sdk/usr/include/c++/v1" "cstdio"
	.file	68 "/Library/Developer/CommandLineTools/SDKs/MacOSX.sdk/usr/include/sys/_types" "_va_list.h" md5 0x41825c2dccdd98a1587ce428cded44de
	.file	69 "/Library/Developer/CommandLineTools/SDKs/MacOSX.sdk/usr/include" "_printf.h" md5 0x2d37517bd0342aa326aa1d3660ad4ab4
	.file	70 "/Library/Developer/CommandLineTools/SDKs/MacOSX.sdk/usr/include/c++/v1/__math" "traits.h"
	.file	71 "/Library/Developer/CommandLineTools/SDKs/MacOSX.sdk/usr/include/c++/v1" "math.h"
	.file	72 "/Library/Developer/CommandLineTools/SDKs/MacOSX.sdk/usr/include/c++/v1/__math" "modulo.h"
	.file	73 "/Library/Developer/CommandLineTools/SDKs/MacOSX.sdk/usr/include/c++/v1" "cmath"
	.file	74 "/Library/Developer/CommandLineTools/SDKs/MacOSX.sdk/usr/include" "math.h" md5 0x35b1ff63542c2c0c144330dd9277d2dc
	.file	75 "/Library/Developer/CommandLineTools/SDKs/MacOSX.sdk/usr/include/c++/v1/__chrono" "duration.h"
	.file	76 "/Library/Developer/CommandLineTools/SDKs/MacOSX.sdk/usr/include/sys/_types" "_clock_t.h" md5 0x757b93ac72874f074e33ca41b7ee521d
	.file	77 "/Library/Developer/CommandLineTools/SDKs/MacOSX.sdk/usr/include/c++/v1" "ctime"
	.file	78 "/Library/Developer/CommandLineTools/SDKs/MacOSX.sdk/usr/include/sys/_types" "_time_t.h" md5 0xddc110fab0813d27960d5c9aaba0ed4f
	.file	79 "/Library/Developer/CommandLineTools/SDKs/MacOSX.sdk/usr/include" "_locale.h" md5 0xa6054df13071a4f642aabbc00435a252
	.file	80 "/Library/Developer/CommandLineTools/SDKs/MacOSX.sdk/usr/include/c++/v1" "clocale"
	.file	81 "/Library/Developer/CommandLineTools/SDKs/MacOSX.sdk/usr/include" "locale.h" md5 0xfcf8310e4aaf18e49a21cced49364afb
	.file	82 "/Library/Developer/CommandLineTools/SDKs/MacOSX.sdk/usr/include/c++/v1" "cstdarg"